
main.elf:     file format elf32-littlearm
architecture: arm, flags 0x00000012:
EXEC_P, HAS_SYMS
start address 0x0015a048

Sections:
Idx Name          Size      VMA       LMA       File off  Algn
  0 .text         00019374  0015a048  0015a048  00000058  2**3
                  CONTENTS, ALLOC, LOAD, CODE
  1 .rodata.str1.1 00001696  001733bc  001733bc  000193cc  2**0
                  CONTENTS, ALLOC, LOAD, READONLY, DATA
  3 .data         00007824  00174b18  00174b18  0001ab28  2**2
                  CONTENTS, ALLOC, LOAD, DATA
  4 .bss          00001ad4  0017c33c  0017c33c  0002234c  2**2
                  ALLOC

Disassembly of section .text:

0015a048 <_start>:
  15a048:	e3a00002 	mov	r0, #2
  15a04c:	e3300002 	teq	r0, #2
  15a050:	e3a0dc19 	mov	sp, #6400	; 0x1900
  15a054:	e3a0b000 	mov	fp, #0
  15a058:	eaffffff 	b	15a05c <startup>

0015a05c <startup>:
  15a05c:	e52de004 	push	{lr}		; (str lr, [sp, #-4]!)
  15a060:	e59f3044 	ldr	r3, [pc, #68]	; 15a0ac <startup+0x50>
  15a064:	e59f2044 	ldr	r2, [pc, #68]	; 15a0b0 <startup+0x54>
  15a068:	e59f1044 	ldr	r1, [pc, #68]	; 15a0b4 <startup+0x58>
  15a06c:	e0622001 	rsb	r2, r2, r1
  15a070:	e1520003 	cmp	r2, r3
  15a074:	e1a01003 	mov	r1, r3
  15a078:	aa000004 	bge	15a090 <startup+0x34>
  15a07c:	e3a00001 	mov	r0, #1
  15a080:	eb000031 	bl	15a14c <debug_led>
  15a084:	eb00002d 	bl	15a140 <shutdown>
  15a088:	e4832004 	str	r2, [r3], #4
  15a08c:	ea000001 	b	15a098 <startup+0x3c>
  15a090:	e59f3020 	ldr	r3, [pc, #32]	; 15a0b8 <startup+0x5c>
  15a094:	e3a02000 	mov	r2, #0
  15a098:	e1530001 	cmp	r3, r1
  15a09c:	3afffff9 	bcc	15a088 <startup+0x2c>
  15a0a0:	eb0000ca 	bl	15a3d0 <boot>
  15a0a4:	e49de004 	pop	{lr}		; (ldr lr, [sp], #4)
  15a0a8:	e12fff1e 	bx	lr
  15a0ac:	0017de10 	.word	0x0017de10
  15a0b0:	0015a048 	.word	0x0015a048
  15a0b4:	002d7e58 	.word	0x002d7e58
  15a0b8:	0017c33c 	.word	0x0017c33c

0015a0bc <get_focal_length>:
  15a0bc:	e350003f 	cmp	r0, #63	; 0x3f
  15a0c0:	a3a0003f 	movge	r0, #63	; 0x3f
  15a0c4:	e1c00fc0 	bic	r0, r0, r0, asr #31
  15a0c8:	e59f3004 	ldr	r3, [pc, #4]	; 15a0d4 <get_focal_length+0x18>
  15a0cc:	e7930180 	ldr	r0, [r3, r0, lsl #3]
  15a0d0:	e12fff1e 	bx	lr
  15a0d4:	fffea3e0 	.word	0xfffea3e0

0015a0d8 <get_effective_focal_length>:
  15a0d8:	e52de004 	push	{lr}		; (str lr, [sp, #-4]!)
  15a0dc:	ebfffff6 	bl	15a0bc <get_focal_length>
  15a0e0:	e3a03e15 	mov	r3, #336	; 0x150
  15a0e4:	e0000093 	mul	r0, r3, r0
  15a0e8:	e3a0103c 	mov	r1, #60	; 0x3c
  15a0ec:	eb004952 	bl	16c63c <__aeabi_idiv>
  15a0f0:	e49de004 	pop	{lr}		; (ldr lr, [sp], #4)
  15a0f4:	e12fff1e 	bx	lr

0015a0f8 <get_zoom_x>:
  15a0f8:	e52de004 	push	{lr}		; (str lr, [sp, #-4]!)
  15a0fc:	ebffffee 	bl	15a0bc <get_focal_length>
  15a100:	e3a0300a 	mov	r3, #10
  15a104:	e0000093 	mul	r0, r3, r0
  15a108:	e59f300c 	ldr	r3, [pc, #12]	; 15a11c <get_zoom_x+0x24>
  15a10c:	e5931000 	ldr	r1, [r3]
  15a110:	eb004949 	bl	16c63c <__aeabi_idiv>
  15a114:	e49de004 	pop	{lr}		; (ldr lr, [sp], #4)
  15a118:	e12fff1e 	bx	lr
  15a11c:	fffea3e0 	.word	0xfffea3e0

0015a120 <get_vbatt_min>:
  15a120:	e3a00e96 	mov	r0, #2400	; 0x960
  15a124:	e12fff1e 	bx	lr

0015a128 <get_vbatt_max>:
  15a128:	e59f0000 	ldr	r0, [pc, #0]	; 15a130 <get_vbatt_max+0x8>
  15a12c:	e12fff1e 	bx	lr
  15a130:	00000a8c 	.word	0x00000a8c

0015a134 <camera_jpeg_count_str>:
  15a134:	e59f0000 	ldr	r0, [pc, #0]	; 15a13c <camera_jpeg_count_str+0x8>
  15a138:	e12fff1e 	bx	lr
  15a13c:	000c86fc 	.word	0x000c86fc

0015a140 <shutdown>:
  15a140:	e52de004 	push	{lr}		; (str lr, [sp, #-4]!)
  15a144:	eb0004a7 	bl	15b3e8 <_TurnOffE1>
  15a148:	eafffffe 	b	15a148 <shutdown+0x8>

0015a14c <debug_led>:
  15a14c:	e3500000 	cmp	r0, #0
  15a150:	03a00044 	moveq	r0, #68	; 0x44
  15a154:	13a00046 	movne	r0, #70	; 0x46
  15a158:	e59f3004 	ldr	r3, [pc, #4]	; 15a164 <debug_led+0x18>
  15a15c:	e5830120 	str	r0, [r3, #288]	; 0x120
  15a160:	e12fff1e 	bx	lr
  15a164:	c0220000 	.word	0xc0220000

0015a168 <camera_set_led>:
  15a168:	e92d4010 	push	{r4, lr}
  15a16c:	e1a04001 	mov	r4, r1
  15a170:	e3510001 	cmp	r1, #1
  15a174:	ca000006 	bgt	15a194 <camera_set_led+0x2c>
  15a178:	e3a01003 	mov	r1, #3
  15a17c:	eb004981 	bl	16c788 <__umodsi3>
  15a180:	e59f3014 	ldr	r3, [pc, #20]	; 15a19c <camera_set_led+0x34>
  15a184:	e7d30000 	ldrb	r0, [r3, r0]
  15a188:	e2741001 	rsbs	r1, r4, #1
  15a18c:	33a01000 	movcc	r1, #0
  15a190:	eb0003ac 	bl	15b048 <_LEDDrive>
  15a194:	e8bd4010 	pop	{r4, lr}
  15a198:	e12fff1e 	bx	lr
  15a19c:	0016f85c 	.word	0x0016f85c

0015a1a0 <get_flash_params_count>:
  15a1a0:	e3a00091 	mov	r0, #145	; 0x91
  15a1a4:	e12fff1e 	bx	lr

0015a1a8 <hook_raw_image_addr>:
  15a1a8:	e59f0000 	ldr	r0, [pc, #0]	; 15a1b0 <hook_raw_image_addr+0x8>
  15a1ac:	e12fff1e 	bx	lr
  15a1b0:	420e5c30 	.word	0x420e5c30

0015a1b4 <hook_raw_size>:
  15a1b4:	e59f0000 	ldr	r0, [pc, #0]	; 15a1bc <hook_raw_size+0x8>
  15a1b8:	e12fff1e 	bx	lr
  15a1bc:	01794300 	.word	0x01794300

0015a1c0 <vid_get_viewport_width>:
  15a1c0:	e3a00f5a 	mov	r0, #360	; 0x168
  15a1c4:	e12fff1e 	bx	lr

0015a1c8 <vid_get_viewport_height>:
  15a1c8:	e3a000f0 	mov	r0, #240	; 0xf0
  15a1cc:	e12fff1e 	bx	lr

0015a1d0 <vid_get_bitmap_fb>:
  15a1d0:	e59f0000 	ldr	r0, [pc, #0]	; 15a1d8 <vid_get_bitmap_fb+0x8>
  15a1d4:	e12fff1e 	bx	lr
  15a1d8:	40431000 	.word	0x40431000

0015a1dc <vid_get_viewport_fb>:
  15a1dc:	e59f0000 	ldr	r0, [pc, #0]	; 15a1e4 <vid_get_viewport_fb+0x8>
  15a1e0:	e12fff1e 	bx	lr
  15a1e4:	40586b80 	.word	0x40586b80

0015a1e8 <vid_get_viewport_fb_d>:
  15a1e8:	e59f3004 	ldr	r3, [pc, #4]	; 15a1f4 <vid_get_viewport_fb_d+0xc>
  15a1ec:	e5930000 	ldr	r0, [r3]
  15a1f0:	e12fff1e 	bx	lr
  15a1f4:	00002f90 	.word	0x00002f90

0015a1f8 <vid_get_viewport_live_fb>:
  15a1f8:	e92d4010 	push	{r4, lr}
  15a1fc:	eb005423 	bl	16f290 <__mode_get_from_arm>
  15a200:	eb005425 	bl	16f29c <__mode_is_video_from_arm>
  15a204:	e3500000 	cmp	r0, #0
  15a208:	e59f4030 	ldr	r4, [pc, #48]	; 15a240 <vid_get_viewport_live_fb+0x48>
  15a20c:	1a000002 	bne	15a21c <vid_get_viewport_live_fb+0x24>
  15a210:	eb005424 	bl	16f2a8 <__is_video_recording_from_arm>
  15a214:	e3500000 	cmp	r0, #0
  15a218:	0a000001 	beq	15a224 <vid_get_viewport_live_fb+0x2c>
  15a21c:	e5940000 	ldr	r0, [r4]
  15a220:	ea000004 	b	15a238 <vid_get_viewport_live_fb+0x40>
  15a224:	e59f3018 	ldr	r3, [pc, #24]	; 15a244 <vid_get_viewport_live_fb+0x4c>
  15a228:	e5d33000 	ldrb	r3, [r3]
  15a22c:	e2433001 	sub	r3, r3, #1
  15a230:	e2033003 	and	r3, r3, #3
  15a234:	e7940103 	ldr	r0, [r4, r3, lsl #2]
  15a238:	e8bd4010 	pop	{r4, lr}
  15a23c:	e12fff1e 	bx	lr
  15a240:	ffb46cc8 	.word	0xffb46cc8
  15a244:	000345b8 	.word	0x000345b8

0015a248 <vid_bitmap_refresh>:
  15a248:	e52de004 	push	{lr}		; (str lr, [sp, #-4]!)
  15a24c:	e59f3018 	ldr	r3, [pc, #24]	; 15a26c <vid_bitmap_refresh+0x24>
  15a250:	e5932000 	ldr	r2, [r3]
  15a254:	e3822003 	orr	r2, r2, #3
  15a258:	e5832000 	str	r2, [r3]
  15a25c:	eb00038d 	bl	15b098 <_ScreenLock>
  15a260:	eb00038d 	bl	15b09c <_ScreenUnlock>
  15a264:	e49de004 	pop	{lr}		; (ldr lr, [sp], #4)
  15a268:	e12fff1e 	bx	lr
  15a26c:	00007424 	.word	0x00007424

0015a270 <vid_get_bitmap_active_palette>:
  15a270:	e59f301c 	ldr	r3, [pc, #28]	; 15a294 <vid_get_bitmap_active_palette+0x24>
  15a274:	e5933000 	ldr	r3, [r3]
  15a278:	e59f2018 	ldr	r2, [pc, #24]	; 15a298 <vid_get_bitmap_active_palette+0x28>
  15a27c:	e5922000 	ldr	r2, [r2]
  15a280:	e7930102 	ldr	r0, [r3, r2, lsl #2]
  15a284:	e3500000 	cmp	r0, #0
  15a288:	05930000 	ldreq	r0, [r3]
  15a28c:	e2800004 	add	r0, r0, #4
  15a290:	e12fff1e 	bx	lr
  15a294:	00007430 	.word	0x00007430
  15a298:	0000742c 	.word	0x0000742c

0015a29c <load_chdk_palette>:
  15a29c:	e52de004 	push	{lr}		; (str lr, [sp, #-4]!)
  15a2a0:	e59f30a0 	ldr	r3, [pc, #160]	; 15a348 <load_chdk_palette+0xac>
  15a2a4:	e5933000 	ldr	r3, [r3]
  15a2a8:	e3530000 	cmp	r3, #0
  15a2ac:	13530005 	cmpne	r3, #5
  15a2b0:	1a000022 	bne	15a340 <load_chdk_palette+0xa4>
  15a2b4:	ebffffed 	bl	15a270 <vid_get_bitmap_active_palette>
  15a2b8:	e59f308c 	ldr	r3, [pc, #140]	; 15a34c <load_chdk_palette+0xb0>
  15a2bc:	e5902340 	ldr	r2, [r0, #832]	; 0x340
  15a2c0:	e1520003 	cmp	r2, r3
  15a2c4:	0a00001d 	beq	15a340 <load_chdk_palette+0xa4>
  15a2c8:	e5803340 	str	r3, [r0, #832]	; 0x340
  15a2cc:	e59f307c 	ldr	r3, [pc, #124]	; 15a350 <load_chdk_palette+0xb4>
  15a2d0:	e5803344 	str	r3, [r0, #836]	; 0x344
  15a2d4:	e59f3078 	ldr	r3, [pc, #120]	; 15a354 <load_chdk_palette+0xb8>
  15a2d8:	e5803348 	str	r3, [r0, #840]	; 0x348
  15a2dc:	e59f3074 	ldr	r3, [pc, #116]	; 15a358 <load_chdk_palette+0xbc>
  15a2e0:	e580334c 	str	r3, [r0, #844]	; 0x34c
  15a2e4:	e59f3070 	ldr	r3, [pc, #112]	; 15a35c <load_chdk_palette+0xc0>
  15a2e8:	e5803350 	str	r3, [r0, #848]	; 0x350
  15a2ec:	e59f306c 	ldr	r3, [pc, #108]	; 15a360 <load_chdk_palette+0xc4>
  15a2f0:	e5803354 	str	r3, [r0, #852]	; 0x354
  15a2f4:	e59f3068 	ldr	r3, [pc, #104]	; 15a364 <load_chdk_palette+0xc8>
  15a2f8:	e5803358 	str	r3, [r0, #856]	; 0x358
  15a2fc:	e59f3064 	ldr	r3, [pc, #100]	; 15a368 <load_chdk_palette+0xcc>
  15a300:	e580335c 	str	r3, [r0, #860]	; 0x35c
  15a304:	e59f3060 	ldr	r3, [pc, #96]	; 15a36c <load_chdk_palette+0xd0>
  15a308:	e5803360 	str	r3, [r0, #864]	; 0x360
  15a30c:	e59f305c 	ldr	r3, [pc, #92]	; 15a370 <load_chdk_palette+0xd4>
  15a310:	e5803364 	str	r3, [r0, #868]	; 0x364
  15a314:	e59f3058 	ldr	r3, [pc, #88]	; 15a374 <load_chdk_palette+0xd8>
  15a318:	e5803368 	str	r3, [r0, #872]	; 0x368
  15a31c:	e59f3054 	ldr	r3, [pc, #84]	; 15a378 <load_chdk_palette+0xdc>
  15a320:	e580336c 	str	r3, [r0, #876]	; 0x36c
  15a324:	e59f3050 	ldr	r3, [pc, #80]	; 15a37c <load_chdk_palette+0xe0>
  15a328:	e5803370 	str	r3, [r0, #880]	; 0x370
  15a32c:	e3a02001 	mov	r2, #1
  15a330:	e59f3048 	ldr	r3, [pc, #72]	; 15a380 <load_chdk_palette+0xe4>
  15a334:	e5c32000 	strb	r2, [r3]
  15a338:	e49de004 	pop	{lr}		; (ldr lr, [sp], #4)
  15a33c:	eaffffc1 	b	15a248 <vid_bitmap_refresh>
  15a340:	e49de004 	pop	{lr}		; (ldr lr, [sp], #4)
  15a344:	e12fff1e 	bx	lr
  15a348:	0000742c 	.word	0x0000742c
  15a34c:	033adf62 	.word	0x033adf62
  15a350:	0326ea40 	.word	0x0326ea40
  15a354:	034cd57f 	.word	0x034cd57f
  15a358:	0373bfae 	.word	0x0373bfae
  15a35c:	034bd6ca 	.word	0x034bd6ca
  15a360:	0395ab95 	.word	0x0395ab95
  15a364:	034766f0 	.word	0x034766f0
  15a368:	031250f3 	.word	0x031250f3
  15a36c:	037f408f 	.word	0x037f408f
  15a370:	03512d5b 	.word	0x03512d5b
  15a374:	03a9a917 	.word	0x03a9a917
  15a378:	03819137 	.word	0x03819137
  15a37c:	03ded115 	.word	0x03ded115
  15a380:	00007424 	.word	0x00007424

0015a384 <vid_get_palette_type>:
  15a384:	e3a00003 	mov	r0, #3
  15a388:	e12fff1e 	bx	lr

0015a38c <vid_get_palette_size>:
  15a38c:	e3a00b01 	mov	r0, #1024	; 0x400
  15a390:	e12fff1e 	bx	lr

0015a394 <vid_get_bitmap_active_buffer>:
  15a394:	e3a03a05 	mov	r3, #20480	; 0x5000
  15a398:	e5930af8 	ldr	r0, [r3, #2808]	; 0xaf8
  15a39c:	e12fff1e 	bx	lr

0015a3a0 <CreateTask_spytask>:
  15a3a0:	e92d4001 	push	{r0, lr}
  15a3a4:	e3a03000 	mov	r3, #0
  15a3a8:	e58d3000 	str	r3, [sp]
  15a3ac:	e59f0014 	ldr	r0, [pc, #20]	; 15a3c8 <CreateTask_spytask+0x28>
  15a3b0:	e3a01019 	mov	r1, #25
  15a3b4:	e3a02a02 	mov	r2, #8192	; 0x2000
  15a3b8:	e59f300c 	ldr	r3, [pc, #12]	; 15a3cc <CreateTask_spytask+0x2c>
  15a3bc:	eb0002f9 	bl	15afa8 <_CreateTask>
  15a3c0:	e8bd4008 	pop	{r3, lr}
  15a3c4:	e12fff1e 	bx	lr
  15a3c8:	001733bc 	.word	0x001733bc
  15a3cc:	0015ce29 	.word	0x0015ce29

0015a3d0 <boot>:
  15a3d0:	e59f1550 	ldr	r1, [pc, #1360]	; 15a928 <init_file_modules_task+0x3c>
  15a3d4:	e3a00000 	mov	r0, #0
  15a3d8:	e5810000 	str	r0, [r1]
  15a3dc:	e3a01078 	mov	r1, #120	; 0x78
  15a3e0:	ee011f10 	mcr	15, 0, r1, cr1, cr0, {0}
  15a3e4:	e3a01000 	mov	r1, #0
  15a3e8:	ee071f9a 	mcr	15, 0, r1, cr7, cr10, {4}
  15a3ec:	ee071f15 	mcr	15, 0, r1, cr7, cr5, {0}
  15a3f0:	ee071f16 	mcr	15, 0, r1, cr7, cr6, {0}
  15a3f4:	e3a0003d 	mov	r0, #61	; 0x3d
  15a3f8:	ee060f10 	mcr	15, 0, r0, cr6, cr0, {0}
  15a3fc:	e3a001bf 	mov	r0, #-1073741777	; 0xc000002f
  15a400:	ee060f11 	mcr	15, 0, r0, cr6, cr1, {0}
  15a404:	e3a00033 	mov	r0, #51	; 0x33
  15a408:	ee060f12 	mcr	15, 0, r0, cr6, cr2, {0}
  15a40c:	e3a001cd 	mov	r0, #1073741875	; 0x40000033
  15a410:	ee060f13 	mcr	15, 0, r0, cr6, cr3, {0}
  15a414:	e3a0015e 	mov	r0, #-2147483625	; 0x80000017
  15a418:	ee060f14 	mcr	15, 0, r0, cr6, cr4, {0}
  15a41c:	e59f0508 	ldr	r0, [pc, #1288]	; 15a92c <init_file_modules_task+0x40>
  15a420:	ee060f15 	mcr	15, 0, r0, cr6, cr5, {0}
  15a424:	e3a00034 	mov	r0, #52	; 0x34
  15a428:	ee020f10 	mcr	15, 0, r0, cr2, cr0, {0}
  15a42c:	e3a00034 	mov	r0, #52	; 0x34
  15a430:	ee020f30 	mcr	15, 0, r0, cr2, cr0, {1}
  15a434:	e3a00034 	mov	r0, #52	; 0x34
  15a438:	ee030f10 	mcr	15, 0, r0, cr3, cr0, {0}
  15a43c:	e59f04ec 	ldr	r0, [pc, #1260]	; 15a930 <init_file_modules_task+0x44>
  15a440:	ee050f50 	mcr	15, 0, r0, cr5, cr0, {2}
  15a444:	e59f04e4 	ldr	r0, [pc, #1252]	; 15a930 <init_file_modules_task+0x44>
  15a448:	ee050f70 	mcr	15, 0, r0, cr5, cr0, {3}
  15a44c:	ee110f10 	mrc	15, 0, r0, cr1, cr0, {0}
  15a450:	e3800a01 	orr	r0, r0, #4096	; 0x1000
  15a454:	e3800004 	orr	r0, r0, #4
  15a458:	e3800001 	orr	r0, r0, #1
  15a45c:	ee010f10 	mcr	15, 0, r0, cr1, cr0, {0}
  15a460:	e3a0111a 	mov	r1, #-2147483642	; 0x80000006
  15a464:	ee091f11 	mcr	15, 0, r1, cr9, cr1, {0}
  15a468:	e3a01006 	mov	r1, #6
  15a46c:	ee091f31 	mcr	15, 0, r1, cr9, cr1, {1}
  15a470:	ee111f10 	mrc	15, 0, r1, cr1, cr0, {0}
  15a474:	e3811805 	orr	r1, r1, #327680	; 0x50000
  15a478:	ee011f10 	mcr	15, 0, r1, cr1, cr0, {0}
  15a47c:	e59f24b0 	ldr	r2, [pc, #1200]	; 15a934 <init_file_modules_task+0x48>
  15a480:	e3a01001 	mov	r1, #1
  15a484:	e582110c 	str	r1, [r2, #268]	; 0x10c
  15a488:	e3a010ff 	mov	r1, #255	; 0xff
  15a48c:	e582100c 	str	r1, [r2, #12]
  15a490:	e582101c 	str	r1, [r2, #28]
  15a494:	e582102c 	str	r1, [r2, #44]	; 0x2c
  15a498:	e582103c 	str	r1, [r2, #60]	; 0x3c
  15a49c:	e582104c 	str	r1, [r2, #76]	; 0x4c
  15a4a0:	e582105c 	str	r1, [r2, #92]	; 0x5c
  15a4a4:	e582106c 	str	r1, [r2, #108]	; 0x6c
  15a4a8:	e582107c 	str	r1, [r2, #124]	; 0x7c
  15a4ac:	e582108c 	str	r1, [r2, #140]	; 0x8c
  15a4b0:	e582109c 	str	r1, [r2, #156]	; 0x9c
  15a4b4:	e58210ac 	str	r1, [r2, #172]	; 0xac
  15a4b8:	e58210bc 	str	r1, [r2, #188]	; 0xbc
  15a4bc:	e58210cc 	str	r1, [r2, #204]	; 0xcc
  15a4c0:	e58210dc 	str	r1, [r2, #220]	; 0xdc
  15a4c4:	e58210ec 	str	r1, [r2, #236]	; 0xec
  15a4c8:	e58210fc 	str	r1, [r2, #252]	; 0xfc
  15a4cc:	e59f1464 	ldr	r1, [pc, #1124]	; 15a938 <init_file_modules_task+0x4c>
  15a4d0:	e59f2464 	ldr	r2, [pc, #1124]	; 15a93c <init_file_modules_task+0x50>
  15a4d4:	e5812000 	str	r2, [r1]
  15a4d8:	e59f2460 	ldr	r2, [pc, #1120]	; 15a940 <init_file_modules_task+0x54>
  15a4dc:	e5921000 	ldr	r1, [r2]
  15a4e0:	e3811001 	orr	r1, r1, #1
  15a4e4:	e5821000 	str	r1, [r2]
  15a4e8:	e59f0454 	ldr	r0, [pc, #1108]	; 15a944 <init_file_modules_task+0x58>
  15a4ec:	e59f1454 	ldr	r1, [pc, #1108]	; 15a948 <init_file_modules_task+0x5c>
  15a4f0:	e59f3454 	ldr	r3, [pc, #1108]	; 15a94c <init_file_modules_task+0x60>

0015a4f4 <loc_FF810130>:
  15a4f4:	e1510003 	cmp	r1, r3
  15a4f8:	34902004 	ldrcc	r2, [r0], #4
  15a4fc:	34812004 	strcc	r2, [r1], #4
  15a500:	3afffffb 	bcc	15a4f4 <loc_FF810130>
  15a504:	e59f0444 	ldr	r0, [pc, #1092]	; 15a950 <init_file_modules_task+0x64>
  15a508:	e3a01c19 	mov	r1, #6400	; 0x1900
  15a50c:	e59f3440 	ldr	r3, [pc, #1088]	; 15a954 <init_file_modules_task+0x68>

0015a510 <loc_FF81014C>:
  15a510:	e1510003 	cmp	r1, r3
  15a514:	34902004 	ldrcc	r2, [r0], #4
  15a518:	34812004 	strcc	r2, [r1], #4
  15a51c:	3afffffb 	bcc	15a510 <loc_FF81014C>
  15a520:	e59f1430 	ldr	r1, [pc, #1072]	; 15a958 <init_file_modules_task+0x6c>
  15a524:	e3a02000 	mov	r2, #0

0015a528 <loc_FF810164>:
  15a528:	e1530001 	cmp	r3, r1
  15a52c:	34832004 	strcc	r2, [r3], #4
  15a530:	3afffffc 	bcc	15a528 <loc_FF810164>
  15a534:	e59f0420 	ldr	r0, [pc, #1056]	; 15a95c <init_file_modules_task+0x70>
  15a538:	e8900006 	ldm	r0, {r1, r2}
  15a53c:	e59f041c 	ldr	r0, [pc, #1052]	; 15a960 <init_file_modules_task+0x74>
  15a540:	e8800006 	stm	r0, {r1, r2}
  15a544:	ea000019 	b	15a5b0 <sub_FF810380_my>

0015a548 <patch_CreateTask>:
  15a548:	e51ff004 	ldr	pc, [pc, #-4]	; 15a54c <patch_CreateTask+0x4>
  15a54c:	0015a550 	.word	0x0015a550

0015a550 <CreateTask_my>:
  15a550:	e92d0001 	push	{r0}
  15a554:	e59f0408 	ldr	r0, [pc, #1032]	; 15a964 <init_file_modules_task+0x78>
  15a558:	e1500003 	cmp	r0, r3
  15a55c:	059f3404 	ldreq	r3, [pc, #1028]	; 15a968 <init_file_modules_task+0x7c>
  15a560:	0a00000e 	beq	15a5a0 <exitHook>
  15a564:	e59f0400 	ldr	r0, [pc, #1024]	; 15a96c <init_file_modules_task+0x80>
  15a568:	e1500003 	cmp	r0, r3
  15a56c:	059f33fc 	ldreq	r3, [pc, #1020]	; 15a970 <init_file_modules_task+0x84>
  15a570:	0a00000a 	beq	15a5a0 <exitHook>
  15a574:	e59f03f8 	ldr	r0, [pc, #1016]	; 15a974 <init_file_modules_task+0x88>
  15a578:	e1500003 	cmp	r0, r3
  15a57c:	059f33f4 	ldreq	r3, [pc, #1012]	; 15a978 <init_file_modules_task+0x8c>
  15a580:	0a000006 	beq	15a5a0 <exitHook>
  15a584:	e59f03f0 	ldr	r0, [pc, #1008]	; 15a97c <init_file_modules_task+0x90>
  15a588:	e1500003 	cmp	r0, r3
  15a58c:	059f33ec 	ldreq	r3, [pc, #1004]	; 15a980 <init_file_modules_task+0x94>
  15a590:	0a000002 	beq	15a5a0 <exitHook>
  15a594:	e59f03e8 	ldr	r0, [pc, #1000]	; 15a984 <init_file_modules_task+0x98>
  15a598:	e1500003 	cmp	r0, r3
  15a59c:	059f33e4 	ldreq	r3, [pc, #996]	; 15a988 <init_file_modules_task+0x9c>

0015a5a0 <exitHook>:
  15a5a0:	e8bd0001 	pop	{r0}
  15a5a4:	e92d43fe 	push	{r1, r2, r3, r4, r5, r6, r7, r8, r9, lr}
  15a5a8:	e1a04000 	mov	r4, r0
  15a5ac:	e59ff3d8 	ldr	pc, [pc, #984]	; 15a98c <init_file_modules_task+0xa0>

0015a5b0 <sub_FF810380_my>:
  15a5b0:	e59f3080 	ldr	r3, [pc, #128]	; 15a638 <loc_FF8103DC+0x10>
  15a5b4:	e59330f8 	ldr	r3, [r3, #248]	; 0xf8
  15a5b8:	e3130001 	tst	r3, #1
  15a5bc:	03a02601 	moveq	r2, #1048576	; 0x100000
  15a5c0:	13a02602 	movne	r2, #2097152	; 0x200000
  15a5c4:	e3a03a02 	mov	r3, #8192	; 0x2000
  15a5c8:	e5832904 	str	r2, [r3, #2308]	; 0x904
  15a5cc:	e59f03bc 	ldr	r0, [pc, #956]	; 15a990 <init_file_modules_task+0xa4>
  15a5d0:	e3a01000 	mov	r1, #0
  15a5d4:	e59f33b8 	ldr	r3, [pc, #952]	; 15a994 <init_file_modules_task+0xa8>

0015a5d8 <loc_FF81038C>:
  15a5d8:	e1500003 	cmp	r0, r3
  15a5dc:	34902004 	ldrcc	r2, [r0], #4
  15a5e0:	34812004 	strcc	r2, [r1], #4
  15a5e4:	3afffffb 	bcc	15a5d8 <loc_FF81038C>
  15a5e8:	e59f03a4 	ldr	r0, [pc, #932]	; 15a994 <init_file_modules_task+0xa8>
  15a5ec:	e3a01e1b 	mov	r1, #432	; 0x1b0
  15a5f0:	e59f33a0 	ldr	r3, [pc, #928]	; 15a998 <init_file_modules_task+0xac>

0015a5f4 <loc_FF8103A8>:
  15a5f4:	e1500003 	cmp	r0, r3
  15a5f8:	34902004 	ldrcc	r2, [r0], #4
  15a5fc:	34812004 	strcc	r2, [r1], #4
  15a600:	3afffffb 	bcc	15a5f4 <loc_FF8103A8>
  15a604:	e3a000d2 	mov	r0, #210	; 0xd2
  15a608:	e12ff000 	msr	CPSR_fsxc, r0
  15a60c:	e3a0da01 	mov	sp, #4096	; 0x1000
  15a610:	e3a000d3 	mov	r0, #211	; 0xd3
  15a614:	e12ff000 	msr	CPSR_fsxc, r0
  15a618:	e3a0da01 	mov	sp, #4096	; 0x1000
  15a61c:	e3a00fe6 	mov	r0, #920	; 0x398
  15a620:	e59f2374 	ldr	r2, [pc, #884]	; 15a99c <init_file_modules_task+0xb0>
  15a624:	e3a03a01 	mov	r3, #4096	; 0x1000

0015a628 <loc_FF8103DC>:
  15a628:	e1500003 	cmp	r0, r3
  15a62c:	34802004 	strcc	r2, [r0], #4
  15a630:	3afffffc 	bcc	15a628 <loc_FF8103DC>
  15a634:	eb000000 	bl	15a63c <sub_FF811100_my>
  15a638:	c0220000 	.word	0xc0220000

0015a63c <sub_FF811100_my>:
  15a63c:	e52de004 	push	{lr}		; (str lr, [sp, #-4]!)
  15a640:	e24dd074 	sub	sp, sp, #116	; 0x74
  15a644:	e3a01074 	mov	r1, #116	; 0x74
  15a648:	e1a0000d 	mov	r0, sp
  15a64c:	eb0000f6 	bl	15aa2c <sub_003FC81C>
  15a650:	e3a00a57 	mov	r0, #356352	; 0x57000
  15a654:	e58d0004 	str	r0, [sp, #4]
  15a658:	e59f0340 	ldr	r0, [pc, #832]	; 15a9a0 <init_file_modules_task+0xb4>
  15a65c:	e5900000 	ldr	r0, [r0]
  15a660:	e59f233c 	ldr	r2, [pc, #828]	; 15a9a4 <init_file_modules_task+0xb8>
  15a664:	e58d0008 	str	r0, [sp, #8]
  15a668:	e0420000 	sub	r0, r2, r0
  15a66c:	e58d000c 	str	r0, [sp, #12]
  15a670:	e3a00022 	mov	r0, #34	; 0x22
  15a674:	e58d0018 	str	r0, [sp, #24]
  15a678:	e3a0007c 	mov	r0, #124	; 0x7c
  15a67c:	e58d001c 	str	r0, [sp, #28]
  15a680:	e59f1320 	ldr	r1, [pc, #800]	; 15a9a8 <init_file_modules_task+0xbc>
  15a684:	e59f0320 	ldr	r0, [pc, #800]	; 15a9ac <init_file_modules_task+0xc0>
  15a688:	e58d1000 	str	r1, [sp]
  15a68c:	e58d0020 	str	r0, [sp, #32]
  15a690:	e3a00096 	mov	r0, #150	; 0x96
  15a694:	e58d2010 	str	r2, [sp, #16]
  15a698:	e58d1014 	str	r1, [sp, #20]
  15a69c:	e58d0024 	str	r0, [sp, #36]	; 0x24
  15a6a0:	e58d0028 	str	r0, [sp, #40]	; 0x28
  15a6a4:	e3a00064 	mov	r0, #100	; 0x64
  15a6a8:	e58d002c 	str	r0, [sp, #44]	; 0x2c
  15a6ac:	e3a00000 	mov	r0, #0
  15a6b0:	e58d0030 	str	r0, [sp, #48]	; 0x30
  15a6b4:	e58d0034 	str	r0, [sp, #52]	; 0x34
  15a6b8:	e3a00010 	mov	r0, #16
  15a6bc:	e58d005c 	str	r0, [sp, #92]	; 0x5c
  15a6c0:	e3a00b02 	mov	r0, #2048	; 0x800
  15a6c4:	e58d0060 	str	r0, [sp, #96]	; 0x60
  15a6c8:	e3a000a0 	mov	r0, #160	; 0xa0
  15a6cc:	e58d0064 	str	r0, [sp, #100]	; 0x64
  15a6d0:	e3a00d0a 	mov	r0, #640	; 0x280
  15a6d4:	e58d0068 	str	r0, [sp, #104]	; 0x68
  15a6d8:	e59f12d0 	ldr	r1, [pc, #720]	; 15a9b0 <init_file_modules_task+0xc4>
  15a6dc:	e3a02000 	mov	r2, #0
  15a6e0:	e1a0000d 	mov	r0, sp
  15a6e4:	eb0000c3 	bl	15a9f8 <sub_003F27E8>
  15a6e8:	e28dd074 	add	sp, sp, #116	; 0x74
  15a6ec:	e49df004 	pop	{pc}		; (ldr pc, [sp], #4)

0015a6f0 <sub_FF8141B8_my>:
  15a6f0:	e92d4010 	push	{r4, lr}
  15a6f4:	eb0000ce 	bl	15aa34 <sub_FF810ADC>
  15a6f8:	eb0000d6 	bl	15aa58 <sub_FF8150A4>
  15a6fc:	e3500000 	cmp	r0, #0
  15a700:	b59f02ac 	ldrlt	r0, [pc, #684]	; 15a9b4 <init_file_modules_task+0xc8>
  15a704:	bb000283 	bllt	15b118 <_err_init_task>
  15a708:	eb0000cd 	bl	15aa44 <sub_FF813DF0>
  15a70c:	e3500000 	cmp	r0, #0
  15a710:	b59f02a0 	ldrlt	r0, [pc, #672]	; 15a9b8 <init_file_modules_task+0xcc>
  15a714:	bb00027f 	bllt	15b118 <_err_init_task>
  15a718:	e59f029c 	ldr	r0, [pc, #668]	; 15a9bc <init_file_modules_task+0xd0>
  15a71c:	eb0000c9 	bl	15aa48 <sub_FF813ED8>
  15a720:	e3500000 	cmp	r0, #0
  15a724:	b59f0294 	ldrlt	r0, [pc, #660]	; 15a9c0 <init_file_modules_task+0xd4>
  15a728:	bb00027a 	bllt	15b118 <_err_init_task>
  15a72c:	e59f0288 	ldr	r0, [pc, #648]	; 15a9bc <init_file_modules_task+0xd0>
  15a730:	eb0000c2 	bl	15aa40 <sub_FF8128F8>
  15a734:	e3500000 	cmp	r0, #0
  15a738:	b59f0284 	ldrlt	r0, [pc, #644]	; 15a9c4 <init_file_modules_task+0xd8>
  15a73c:	bb000275 	bllt	15b118 <_err_init_task>
  15a740:	eb0000c3 	bl	15aa54 <sub_FF814A40>
  15a744:	e3500000 	cmp	r0, #0
  15a748:	b59f0278 	ldrlt	r0, [pc, #632]	; 15a9c8 <init_file_modules_task+0xdc>
  15a74c:	bb000271 	bllt	15b118 <_err_init_task>
  15a750:	eb0000b9 	bl	15aa3c <sub_FF8115F0>
  15a754:	e3500000 	cmp	r0, #0
  15a758:	b59f026c 	ldrlt	r0, [pc, #620]	; 15a9cc <init_file_modules_task+0xe0>
  15a75c:	bb00026d 	bllt	15b118 <_err_init_task>
  15a760:	e8bd4010 	pop	{r4, lr}
  15a764:	eaffffff 	b	15a768 <sub_FF81A1FC_my>

0015a768 <sub_FF81A1FC_my>:
  15a768:	e92d4008 	push	{r3, lr}
  15a76c:	eb0000cd 	bl	15aaa8 <sub_FF83128C>
  15a770:	e3500000 	cmp	r0, #0
  15a774:	1a000003 	bne	15a788 <loc_FF81A220>
  15a778:	eb0000c3 	bl	15aa8c <sub_FF82C4FC>
  15a77c:	e3500000 	cmp	r0, #0
  15a780:	13a00001 	movne	r0, #1
  15a784:	1a000000 	bne	15a78c <loc_FF81A224>

0015a788 <loc_FF81A220>:
  15a788:	e3a00000 	mov	r0, #0

0015a78c <loc_FF81A224>:
  15a78c:	eb000011 	bl	15a7d8 <sub_FF82A998_my>
  15a790:	e3500000 	cmp	r0, #0
  15a794:	1a000001 	bne	15a7a0 <loc_FF81A238>
  15a798:	eb0000b7 	bl	15aa7c <sub_FF82A280>

0015a79c <loc_FF81A234>:
  15a79c:	eafffffe 	b	15a79c <loc_FF81A234>

0015a7a0 <loc_FF81A238>:
  15a7a0:	eb000097 	bl	15aa04 <sub_003F79E0>
  15a7a4:	e59f1224 	ldr	r1, [pc, #548]	; 15a9d0 <init_file_modules_task+0xe4>
  15a7a8:	e3a00000 	mov	r0, #0
  15a7ac:	eb0000c2 	bl	15aabc <sub_FF8317E0>
  15a7b0:	eb000094 	bl	15aa08 <sub_003F7BF8>
  15a7b4:	e3a03000 	mov	r3, #0
  15a7b8:	e58d3000 	str	r3, [sp]
  15a7bc:	e59f3210 	ldr	r3, [pc, #528]	; 15a9d4 <init_file_modules_task+0xe8>
  15a7c0:	e3a02000 	mov	r2, #0
  15a7c4:	e3a01019 	mov	r1, #25
  15a7c8:	e59f0208 	ldr	r0, [pc, #520]	; 15a9d8 <init_file_modules_task+0xec>
  15a7cc:	eb0001f5 	bl	15afa8 <_CreateTask>
  15a7d0:	e3a00000 	mov	r0, #0
  15a7d4:	e8bd8008 	pop	{r3, pc}

0015a7d8 <sub_FF82A998_my>:
  15a7d8:	e92d41fc 	push	{r2, r3, r4, r5, r6, r7, r8, lr}
  15a7dc:	e3a06000 	mov	r6, #0
  15a7e0:	e1a08000 	mov	r8, r0
  15a7e4:	e1a07006 	mov	r7, r6
  15a7e8:	e59f01ec 	ldr	r0, [pc, #492]	; 15a9dc <init_file_modules_task+0xf0>
  15a7ec:	eb0000b7 	bl	15aad0 <sub_FF85FBE4>
  15a7f0:	e3a04001 	mov	r4, #1
  15a7f4:	e1c45000 	bic	r5, r4, r0
  15a7f8:	e59f01e0 	ldr	r0, [pc, #480]	; 15a9e0 <init_file_modules_task+0xf4>
  15a7fc:	eb0000b3 	bl	15aad0 <sub_FF85FBE4>
  15a800:	e3580000 	cmp	r8, #0
  15a804:	e1c44000 	bic	r4, r4, r0
  15a808:	0a000001 	beq	15a814 <loc_FF82A9D8>
  15a80c:	e1950004 	orrs	r0, r5, r4
  15a810:	0a000006 	beq	15a830 <loc_FF82A9FC>

0015a814 <loc_FF82A9D8>:
  15a814:	eb0000a3 	bl	15aaa8 <sub_FF83128C>
  15a818:	e1a02000 	mov	r2, r0
  15a81c:	e3a03000 	mov	r3, #0
  15a820:	e1a01004 	mov	r1, r4
  15a824:	e1a00005 	mov	r0, r5
  15a828:	e1cd60f0 	strd	r6, [sp]
  15a82c:	e3a00001 	mov	r0, #1

0015a830 <loc_FF82A9FC>:
  15a830:	e8bd81fc 	pop	{r2, r3, r4, r5, r6, r7, r8, pc}

0015a834 <task_Startup_my>:
  15a834:	e92d4010 	push	{r4, lr}
  15a838:	eb000083 	bl	15aa4c <sub_FF8147F8>
  15a83c:	eb000090 	bl	15aa84 <sub_FF82BB20>
  15a840:	eb00008c 	bl	15aa78 <sub_FF82A22C>
  15a844:	eb000098 	bl	15aaac <sub_FF831500>
  15a848:	eb00009a 	bl	15aab8 <sub_FF83167C>
  15a84c:	eb00009c 	bl	15aac4 <sub_FF831E58>
  15a850:	eb000097 	bl	15aab4 <sub_FF831640>
  15a854:	eb000095 	bl	15aab0 <sub_FF831530>
  15a858:	eb000090 	bl	15aaa0 <sub_FF82FE80>
  15a85c:	eb000099 	bl	15aac8 <sub_FF831E60>
  15a860:	ebfffece 	bl	15a3a0 <CreateTask_spytask>
  15a864:	eb00000b 	bl	15a898 <taskcreatePhySw_my>
  15a868:	eb00008b 	bl	15aa9c <sub_FF82E2D4>
  15a86c:	eb0000bd 	bl	15ab68 <sub_FF89D31C>
  15a870:	eb00007a 	bl	15aa60 <sub_FF82836C>
  15a874:	eb00007d 	bl	15aa70 <sub_FF829C40>
  15a878:	eb000089 	bl	15aaa4 <sub_FF8310BC>
  15a87c:	eb00007c 	bl	15aa74 <sub_FF82A1E0>
  15a880:	eb000079 	bl	15aa6c <sub_FF829BE0>
  15a884:	eb000090 	bl	15aacc <sub_FF850CEC>
  15a888:	eb000075 	bl	15aa64 <sub_FF828F34>
  15a88c:	eb000075 	bl	15aa68 <sub_FF829BA4>
  15a890:	e8bd4010 	pop	{r4, lr}
  15a894:	ea00006d 	b	15aa50 <sub_FF814918>

0015a898 <taskcreatePhySw_my>:
  15a898:	e92d4038 	push	{r3, r4, r5, lr}
  15a89c:	e59f4140 	ldr	r4, [pc, #320]	; 15a9e4 <init_file_modules_task+0xf8>
  15a8a0:	e5940004 	ldr	r0, [r4, #4]
  15a8a4:	e3500000 	cmp	r0, #0
  15a8a8:	1a000007 	bne	15a8cc <loc_FF82A870>
  15a8ac:	e3a03000 	mov	r3, #0
  15a8b0:	e58d3000 	str	r3, [sp]
  15a8b4:	e59f312c 	ldr	r3, [pc, #300]	; 15a9e8 <init_file_modules_task+0xfc>
  15a8b8:	e3a02a02 	mov	r2, #8192	; 0x2000
  15a8bc:	e3a01017 	mov	r1, #23
  15a8c0:	e59f0124 	ldr	r0, [pc, #292]	; 15a9ec <init_file_modules_task+0x100>
  15a8c4:	eb000050 	bl	15aa0c <sub_003F7C50>
  15a8c8:	e5840004 	str	r0, [r4, #4]

0015a8cc <loc_FF82A870>:
  15a8cc:	eb0000a2 	bl	15ab5c <sub_FF88C040>
  15a8d0:	eb00006c 	bl	15aa88 <sub_FF82C44C>
  15a8d4:	e3500000 	cmp	r0, #0
  15a8d8:	1a000002 	bne	15a8e8 <loc_FF82A88C>
  15a8dc:	e59f110c 	ldr	r1, [pc, #268]	; 15a9f0 <init_file_modules_task+0x104>
  15a8e0:	e3a00000 	mov	r0, #0
  15a8e4:	eb00009b 	bl	15ab58 <sub_FF88BFAC>

0015a8e8 <loc_FF82A88C>:
  15a8e8:	e8bd8038 	pop	{r3, r4, r5, pc}

0015a8ec <init_file_modules_task>:
  15a8ec:	e92d4070 	push	{r4, r5, r6, lr}
  15a8f0:	eb00009a 	bl	15ab60 <sub_FF88E930>
  15a8f4:	e59f50f8 	ldr	r5, [pc, #248]	; 15a9f4 <init_file_modules_task+0x108>
  15a8f8:	e1b04000 	movs	r4, r0
  15a8fc:	13a01000 	movne	r1, #0
  15a900:	11a00005 	movne	r0, r5
  15a904:	1b0001dc 	blne	15b07c <_PostLogicalEventToUI>
  15a908:	eb000095 	bl	15ab64 <sub_FF88E964>
  15a90c:	eb005268 	bl	16f2b4 <__core_spytask_can_start_from_arm>
  15a910:	e3540000 	cmp	r4, #0
  15a914:	18bd8070 	popne	{r4, r5, r6, pc}
  15a918:	e1a00005 	mov	r0, r5
  15a91c:	e8bd4070 	pop	{r4, r5, r6, lr}
  15a920:	e3a01000 	mov	r1, #0
  15a924:	ea0001d4 	b	15b07c <_PostLogicalEventToUI>
  15a928:	c0410000 	.word	0xc0410000
  15a92c:	ff80002d 	.word	0xff80002d
  15a930:	03333330 	.word	0x03333330
  15a934:	c0200000 	.word	0xc0200000
  15a938:	c0400008 	.word	0xc0400008
  15a93c:	00430005 	.word	0x00430005
  15a940:	c0242010 	.word	0xc0242010
  15a944:	ffc53a20 	.word	0xffc53a20
  15a948:	003f1000 	.word	0x003f1000
  15a94c:	0040099c 	.word	0x0040099c
  15a950:	ffc46dc0 	.word	0xffc46dc0
  15a954:	0000e560 	.word	0x0000e560
  15a958:	0015a048 	.word	0x0015a048
  15a95c:	0015a548 	.word	0x0015a548
  15a960:	003f68b0 	.word	0x003f68b0
  15a964:	ff87d2a4 	.word	0xff87d2a4
  15a968:	0015b52c 	.word	0x0015b52c
  15a96c:	ff8b98f4 	.word	0xff8b98f4
  15a970:	0015bb0c 	.word	0x0015bb0c
  15a974:	ffa73eec 	.word	0xffa73eec
  15a978:	0015c7e4 	.word	0x0015c7e4
  15a97c:	ff9715c8 	.word	0xff9715c8
  15a980:	0015c3a4 	.word	0x0015c3a4
  15a984:	ff853790 	.word	0xff853790
  15a988:	0015a8ec 	.word	0x0015a8ec
  15a98c:	003f68b8 	.word	0x003f68b8
  15a990:	ff8103f8 	.word	0xff8103f8
  15a994:	ff810430 	.word	0xff810430
  15a998:	ff810618 	.word	0xff810618
  15a99c:	eeeeeeee 	.word	0xeeeeeeee
  15a9a0:	0016f860 	.word	0x0016f860
  15a9a4:	002ed440 	.word	0x002ed440
  15a9a8:	002f5c00 	.word	0x002f5c00
  15a9ac:	000001cd 	.word	0x000001cd
  15a9b0:	0015a6f0 	.word	0x0015a6f0
  15a9b4:	ff8142cc 	.word	0xff8142cc
  15a9b8:	ff8142d4 	.word	0xff8142d4
  15a9bc:	ff8142e4 	.word	0xff8142e4
  15a9c0:	ff8142ec 	.word	0xff8142ec
  15a9c4:	ff814300 	.word	0xff814300
  15a9c8:	ff81430c 	.word	0xff81430c
  15a9cc:	ff814318 	.word	0xff814318
  15a9d0:	0034e000 	.word	0x0034e000
  15a9d4:	0015a834 	.word	0x0015a834
  15a9d8:	ff81a278 	.word	0xff81a278
  15a9dc:	c02200f8 	.word	0xc02200f8
  15a9e0:	c02200fc 	.word	0xc02200fc
  15a9e4:	00001c90 	.word	0x00001c90
  15a9e8:	0016ed14 	.word	0x0016ed14
  15a9ec:	ff82aaf4 	.word	0xff82aaf4
  15a9f0:	000325f0 	.word	0x000325f0
  15a9f4:	00005006 	.word	0x00005006

0015a9f8 <sub_003F27E8>:
  15a9f8:	e59ff2cc 	ldr	pc, [pc, #716]	; 15accc <sub_FFA95570+0x4>

0015a9fc <sub_003F7418>:
  15a9fc:	e59ff2cc 	ldr	pc, [pc, #716]	; 15acd0 <sub_FFA95570+0x8>

0015aa00 <sub_003F765C>:
  15aa00:	e59ff2cc 	ldr	pc, [pc, #716]	; 15acd4 <sub_FFA95570+0xc>

0015aa04 <sub_003F79E0>:
  15aa04:	e59ff2cc 	ldr	pc, [pc, #716]	; 15acd8 <sub_FFA95570+0x10>

0015aa08 <sub_003F7BF8>:
  15aa08:	e59ff2cc 	ldr	pc, [pc, #716]	; 15acdc <sub_FFA95570+0x14>

0015aa0c <sub_003F7C50>:
  15aa0c:	e59ff2cc 	ldr	pc, [pc, #716]	; 15ace0 <sub_FFA95570+0x18>

0015aa10 <sub_003F7D90>:
  15aa10:	e59ff2cc 	ldr	pc, [pc, #716]	; 15ace4 <sub_FFA95570+0x1c>

0015aa14 <sub_003FABF8>:
  15aa14:	e59ff2cc 	ldr	pc, [pc, #716]	; 15ace8 <sub_FFA95570+0x20>

0015aa18 <sub_003FACDC>:
  15aa18:	e59ff2cc 	ldr	pc, [pc, #716]	; 15acec <sub_FFA95570+0x24>

0015aa1c <sub_003FAD9C>:
  15aa1c:	e59ff2cc 	ldr	pc, [pc, #716]	; 15acf0 <sub_FFA95570+0x28>

0015aa20 <sub_003FADD0>:
  15aa20:	e59ff2cc 	ldr	pc, [pc, #716]	; 15acf4 <sub_FFA95570+0x2c>

0015aa24 <sub_003FC550>:
  15aa24:	e59ff2cc 	ldr	pc, [pc, #716]	; 15acf8 <sub_FFA95570+0x30>

0015aa28 <sub_003FC738>:
  15aa28:	e59ff2cc 	ldr	pc, [pc, #716]	; 15acfc <sub_FFA95570+0x34>

0015aa2c <sub_003FC81C>:
  15aa2c:	e59ff2cc 	ldr	pc, [pc, #716]	; 15ad00 <sub_FFA95570+0x38>

0015aa30 <sub_FF810380>:
  15aa30:	e59ff2cc 	ldr	pc, [pc, #716]	; 15ad04 <sub_FFA95570+0x3c>

0015aa34 <sub_FF810ADC>:
  15aa34:	e59ff2cc 	ldr	pc, [pc, #716]	; 15ad08 <sub_FFA95570+0x40>

0015aa38 <sub_FF811100>:
  15aa38:	e59ff2cc 	ldr	pc, [pc, #716]	; 15ad0c <sub_FFA95570+0x44>

0015aa3c <sub_FF8115F0>:
  15aa3c:	e59ff2cc 	ldr	pc, [pc, #716]	; 15ad10 <sub_FFA95570+0x48>

0015aa40 <sub_FF8128F8>:
  15aa40:	e59ff2cc 	ldr	pc, [pc, #716]	; 15ad14 <sub_FFA95570+0x4c>

0015aa44 <sub_FF813DF0>:
  15aa44:	e59ff2cc 	ldr	pc, [pc, #716]	; 15ad18 <sub_FFA95570+0x50>

0015aa48 <sub_FF813ED8>:
  15aa48:	e59ff2cc 	ldr	pc, [pc, #716]	; 15ad1c <sub_FFA95570+0x54>

0015aa4c <sub_FF8147F8>:
  15aa4c:	e59ff2cc 	ldr	pc, [pc, #716]	; 15ad20 <sub_FFA95570+0x58>

0015aa50 <sub_FF814918>:
  15aa50:	e59ff2cc 	ldr	pc, [pc, #716]	; 15ad24 <sub_FFA95570+0x5c>

0015aa54 <sub_FF814A40>:
  15aa54:	e59ff2cc 	ldr	pc, [pc, #716]	; 15ad28 <sub_FFA95570+0x60>

0015aa58 <sub_FF8150A4>:
  15aa58:	e59ff2cc 	ldr	pc, [pc, #716]	; 15ad2c <sub_FFA95570+0x64>

0015aa5c <sub_FF81A1FC>:
  15aa5c:	e59ff2cc 	ldr	pc, [pc, #716]	; 15ad30 <sub_FFA95570+0x68>

0015aa60 <sub_FF82836C>:
  15aa60:	e59ff2cc 	ldr	pc, [pc, #716]	; 15ad34 <sub_FFA95570+0x6c>

0015aa64 <sub_FF828F34>:
  15aa64:	e59ff2cc 	ldr	pc, [pc, #716]	; 15ad38 <sub_FFA95570+0x70>

0015aa68 <sub_FF829BA4>:
  15aa68:	e59ff2cc 	ldr	pc, [pc, #716]	; 15ad3c <sub_FFA95570+0x74>

0015aa6c <sub_FF829BE0>:
  15aa6c:	e59ff2cc 	ldr	pc, [pc, #716]	; 15ad40 <sub_FFA95570+0x78>

0015aa70 <sub_FF829C40>:
  15aa70:	e59ff2cc 	ldr	pc, [pc, #716]	; 15ad44 <sub_FFA95570+0x7c>

0015aa74 <sub_FF82A1E0>:
  15aa74:	e59ff2cc 	ldr	pc, [pc, #716]	; 15ad48 <sub_FFA95570+0x80>

0015aa78 <sub_FF82A22C>:
  15aa78:	e59ff2cc 	ldr	pc, [pc, #716]	; 15ad4c <sub_FFA95570+0x84>

0015aa7c <sub_FF82A280>:
  15aa7c:	e59ff2cc 	ldr	pc, [pc, #716]	; 15ad50 <sub_FFA95570+0x88>

0015aa80 <sub_FF82A998>:
  15aa80:	e59ff2cc 	ldr	pc, [pc, #716]	; 15ad54 <sub_FFA95570+0x8c>

0015aa84 <sub_FF82BB20>:
  15aa84:	e59ff2cc 	ldr	pc, [pc, #716]	; 15ad58 <sub_FFA95570+0x90>

0015aa88 <sub_FF82C44C>:
  15aa88:	e59ff2cc 	ldr	pc, [pc, #716]	; 15ad5c <sub_FFA95570+0x94>

0015aa8c <sub_FF82C4FC>:
  15aa8c:	e59ff2cc 	ldr	pc, [pc, #716]	; 15ad60 <sub_FFA95570+0x98>

0015aa90 <sub_FF82D51C>:
  15aa90:	e59ff2cc 	ldr	pc, [pc, #716]	; 15ad64 <sub_FFA95570+0x9c>

0015aa94 <sub_FF82D7C8>:
  15aa94:	e59ff2cc 	ldr	pc, [pc, #716]	; 15ad68 <sub_FFA95570+0xa0>

0015aa98 <sub_FF82DAF8>:
  15aa98:	e59ff2cc 	ldr	pc, [pc, #716]	; 15ad6c <sub_FFA95570+0xa4>

0015aa9c <sub_FF82E2D4>:
  15aa9c:	e59ff2cc 	ldr	pc, [pc, #716]	; 15ad70 <sub_FFA95570+0xa8>

0015aaa0 <sub_FF82FE80>:
  15aaa0:	e59ff2cc 	ldr	pc, [pc, #716]	; 15ad74 <sub_FFA95570+0xac>

0015aaa4 <sub_FF8310BC>:
  15aaa4:	e59ff2cc 	ldr	pc, [pc, #716]	; 15ad78 <sub_FFA95570+0xb0>

0015aaa8 <sub_FF83128C>:
  15aaa8:	e59ff2cc 	ldr	pc, [pc, #716]	; 15ad7c <sub_FFA95570+0xb4>

0015aaac <sub_FF831500>:
  15aaac:	e59ff2cc 	ldr	pc, [pc, #716]	; 15ad80 <sub_FFA95570+0xb8>

0015aab0 <sub_FF831530>:
  15aab0:	e59ff2cc 	ldr	pc, [pc, #716]	; 15ad84 <sub_FFA95570+0xbc>

0015aab4 <sub_FF831640>:
  15aab4:	e59ff2cc 	ldr	pc, [pc, #716]	; 15ad88 <sub_FFA95570+0xc0>

0015aab8 <sub_FF83167C>:
  15aab8:	e59ff2cc 	ldr	pc, [pc, #716]	; 15ad8c <sub_FFA95570+0xc4>

0015aabc <sub_FF8317E0>:
  15aabc:	e59ff2cc 	ldr	pc, [pc, #716]	; 15ad90 <sub_FFA95570+0xc8>

0015aac0 <sub_FF831BD8>:
  15aac0:	e59ff2cc 	ldr	pc, [pc, #716]	; 15ad94 <sub_FFA95570+0xcc>

0015aac4 <sub_FF831E58>:
  15aac4:	e59ff2cc 	ldr	pc, [pc, #716]	; 15ad98 <sub_FFA95570+0xd0>

0015aac8 <sub_FF831E60>:
  15aac8:	e59ff2cc 	ldr	pc, [pc, #716]	; 15ad9c <sub_FFA95570+0xd4>

0015aacc <sub_FF850CEC>:
  15aacc:	e59ff2cc 	ldr	pc, [pc, #716]	; 15ada0 <sub_FFA95570+0xd8>

0015aad0 <sub_FF85FBE4>:
  15aad0:	e59ff2cc 	ldr	pc, [pc, #716]	; 15ada4 <sub_FFA95570+0xdc>

0015aad4 <sub_FF86264C>:
  15aad4:	e59ff2cc 	ldr	pc, [pc, #716]	; 15ada8 <sub_FFA95570+0xe0>

0015aad8 <sub_FF8727E4>:
  15aad8:	e59ff2cc 	ldr	pc, [pc, #716]	; 15adac <sub_FFA95570+0xe4>

0015aadc <sub_FF8727FC>:
  15aadc:	e59ff2cc 	ldr	pc, [pc, #716]	; 15adb0 <sub_FFA95570+0xe8>

0015aae0 <sub_FF8730A8>:
  15aae0:	e59ff2cc 	ldr	pc, [pc, #716]	; 15adb4 <sub_FFA95570+0xec>

0015aae4 <sub_FF87372C>:
  15aae4:	e59ff2cc 	ldr	pc, [pc, #716]	; 15adb8 <sub_FFA95570+0xf0>

0015aae8 <sub_FF873868>:
  15aae8:	e59ff2cc 	ldr	pc, [pc, #716]	; 15adbc <sub_FFA95570+0xf4>

0015aaec <sub_FF875978>:
  15aaec:	e59ff2cc 	ldr	pc, [pc, #716]	; 15adc0 <sub_FFA95570+0xf8>

0015aaf0 <sub_FF87AF98>:
  15aaf0:	e59ff2cc 	ldr	pc, [pc, #716]	; 15adc4 <sub_FFA95570+0xfc>

0015aaf4 <sub_FF87B678>:
  15aaf4:	e59ff2cc 	ldr	pc, [pc, #716]	; 15adc8 <sub_FFA95570+0x100>

0015aaf8 <sub_FF87B80C>:
  15aaf8:	e59ff2cc 	ldr	pc, [pc, #716]	; 15adcc <sub_FFA95570+0x104>

0015aafc <sub_FF87C990>:
  15aafc:	e59ff2cc 	ldr	pc, [pc, #716]	; 15add0 <sub_FFA95570+0x108>

0015ab00 <sub_FF87D730>:
  15ab00:	e59ff2cc 	ldr	pc, [pc, #716]	; 15add4 <sub_FFA95570+0x10c>

0015ab04 <sub_FF87DAB4>:
  15ab04:	e59ff2cc 	ldr	pc, [pc, #716]	; 15add8 <sub_FFA95570+0x110>

0015ab08 <sub_FF87DABC>:
  15ab08:	e59ff2cc 	ldr	pc, [pc, #716]	; 15addc <sub_FFA95570+0x114>

0015ab0c <sub_FF87DAC4>:
  15ab0c:	e59ff2cc 	ldr	pc, [pc, #716]	; 15ade0 <sub_FFA95570+0x118>

0015ab10 <sub_FF87DAD8>:
  15ab10:	e59ff2cc 	ldr	pc, [pc, #716]	; 15ade4 <sub_FFA95570+0x11c>

0015ab14 <sub_FF87DCD8>:
  15ab14:	e59ff2cc 	ldr	pc, [pc, #716]	; 15ade8 <sub_FFA95570+0x120>

0015ab18 <sub_FF87DD6C>:
  15ab18:	e59ff2cc 	ldr	pc, [pc, #716]	; 15adec <sub_FFA95570+0x124>

0015ab1c <sub_FF87DE00>:
  15ab1c:	e59ff2cc 	ldr	pc, [pc, #716]	; 15adf0 <sub_FFA95570+0x128>

0015ab20 <sub_FF87DF68>:
  15ab20:	e59ff2cc 	ldr	pc, [pc, #716]	; 15adf4 <sub_FFA95570+0x12c>

0015ab24 <sub_FF87DF94>:
  15ab24:	e59ff2cc 	ldr	pc, [pc, #716]	; 15adf8 <sub_FFA95570+0x130>

0015ab28 <sub_FF87E310>:
  15ab28:	e59ff2cc 	ldr	pc, [pc, #716]	; 15adfc <sub_FFA95570+0x134>

0015ab2c <sub_FF87E71C>:
  15ab2c:	e59ff2cc 	ldr	pc, [pc, #716]	; 15ae00 <sub_FFA95570+0x138>

0015ab30 <sub_FF87E780>:
  15ab30:	e59ff2cc 	ldr	pc, [pc, #716]	; 15ae04 <sub_FFA95570+0x13c>

0015ab34 <sub_FF87EA94>:
  15ab34:	e59ff2cc 	ldr	pc, [pc, #716]	; 15ae08 <sub_FFA95570+0x140>

0015ab38 <sub_FF87EAEC>:
  15ab38:	e59ff2cc 	ldr	pc, [pc, #716]	; 15ae0c <sub_FFA95570+0x144>

0015ab3c <sub_FF880B88>:
  15ab3c:	e59ff2cc 	ldr	pc, [pc, #716]	; 15ae10 <sub_FFA95570+0x148>

0015ab40 <sub_FF880C74>:
  15ab40:	e59ff2cc 	ldr	pc, [pc, #716]	; 15ae14 <sub_FFA95570+0x14c>

0015ab44 <sub_FF880CCC>:
  15ab44:	e59ff2cc 	ldr	pc, [pc, #716]	; 15ae18 <sub_FFA95570+0x150>

0015ab48 <sub_FF880E00>:
  15ab48:	e59ff2cc 	ldr	pc, [pc, #716]	; 15ae1c <sub_FFA95570+0x154>

0015ab4c <sub_FF88114C>:
  15ab4c:	e59ff2cc 	ldr	pc, [pc, #716]	; 15ae20 <sub_FFA95570+0x158>

0015ab50 <sub_FF882730>:
  15ab50:	e59ff2cc 	ldr	pc, [pc, #716]	; 15ae24 <sub_FFA95570+0x15c>

0015ab54 <sub_FF882998>:
  15ab54:	e59ff2cc 	ldr	pc, [pc, #716]	; 15ae28 <sub_FFA95570+0x160>

0015ab58 <sub_FF88BFAC>:
  15ab58:	e59ff2cc 	ldr	pc, [pc, #716]	; 15ae2c <sub_FFA95570+0x164>

0015ab5c <sub_FF88C040>:
  15ab5c:	e59ff2cc 	ldr	pc, [pc, #716]	; 15ae30 <sub_FFA95570+0x168>

0015ab60 <sub_FF88E930>:
  15ab60:	e59ff2cc 	ldr	pc, [pc, #716]	; 15ae34 <sub_FFA95570+0x16c>

0015ab64 <sub_FF88E964>:
  15ab64:	e59ff2cc 	ldr	pc, [pc, #716]	; 15ae38 <sub_FFA95570+0x170>

0015ab68 <sub_FF89D31C>:
  15ab68:	e59ff2cc 	ldr	pc, [pc, #716]	; 15ae3c <sub_FFA95570+0x174>

0015ab6c <sub_FF8A3DD8>:
  15ab6c:	e59ff2cc 	ldr	pc, [pc, #716]	; 15ae40 <sub_FFA95570+0x178>

0015ab70 <sub_FF8A4068>:
  15ab70:	e59ff2cc 	ldr	pc, [pc, #716]	; 15ae44 <sub_FFA95570+0x17c>

0015ab74 <sub_FF8A40D4>:
  15ab74:	e59ff2cc 	ldr	pc, [pc, #716]	; 15ae48 <sub_FFA95570+0x180>

0015ab78 <sub_FF8A4388>:
  15ab78:	e59ff2cc 	ldr	pc, [pc, #716]	; 15ae4c <sub_FFA95570+0x184>

0015ab7c <sub_FF8A4C58>:
  15ab7c:	e59ff2cc 	ldr	pc, [pc, #716]	; 15ae50 <sub_FFA95570+0x188>

0015ab80 <sub_FF8A5144>:
  15ab80:	e59ff2cc 	ldr	pc, [pc, #716]	; 15ae54 <sub_FFA95570+0x18c>

0015ab84 <sub_FF8AC910>:
  15ab84:	e59ff2cc 	ldr	pc, [pc, #716]	; 15ae58 <sub_FFA95570+0x190>

0015ab88 <sub_FF8B5000>:
  15ab88:	e59ff2cc 	ldr	pc, [pc, #716]	; 15ae5c <sub_FFA95570+0x194>

0015ab8c <sub_FF8B51BC>:
  15ab8c:	e59ff2cc 	ldr	pc, [pc, #716]	; 15ae60 <sub_FFA95570+0x198>

0015ab90 <sub_FF8B5214>:
  15ab90:	e59ff2cc 	ldr	pc, [pc, #716]	; 15ae64 <sub_FFA95570+0x19c>

0015ab94 <sub_FF8B526C>:
  15ab94:	e59ff2cc 	ldr	pc, [pc, #716]	; 15ae68 <sub_FFA95570+0x1a0>

0015ab98 <sub_FF8B52C4>:
  15ab98:	e59ff2cc 	ldr	pc, [pc, #716]	; 15ae6c <sub_FFA95570+0x1a4>

0015ab9c <sub_FF8B535C>:
  15ab9c:	e59ff2cc 	ldr	pc, [pc, #716]	; 15ae70 <sub_FFA95570+0x1a8>

0015aba0 <sub_FF8B54C8>:
  15aba0:	e59ff2cc 	ldr	pc, [pc, #716]	; 15ae74 <sub_FFA95570+0x1ac>

0015aba4 <sub_FF8B557C>:
  15aba4:	e59ff2cc 	ldr	pc, [pc, #716]	; 15ae78 <sub_FFA95570+0x1b0>

0015aba8 <sub_FF8B5838>:
  15aba8:	e59ff2cc 	ldr	pc, [pc, #716]	; 15ae7c <sub_FFA95570+0x1b4>

0015abac <sub_FF8B5A64>:
  15abac:	e59ff2cc 	ldr	pc, [pc, #716]	; 15ae80 <sub_FFA95570+0x1b8>

0015abb0 <sub_FF8B5D90>:
  15abb0:	e59ff2cc 	ldr	pc, [pc, #716]	; 15ae84 <sub_FFA95570+0x1bc>

0015abb4 <sub_FF8B5FAC>:
  15abb4:	e59ff2cc 	ldr	pc, [pc, #716]	; 15ae88 <sub_FFA95570+0x1c0>

0015abb8 <sub_FF8B636C>:
  15abb8:	e59ff2cc 	ldr	pc, [pc, #716]	; 15ae8c <sub_FFA95570+0x1c4>

0015abbc <sub_FF8B64B0>:
  15abbc:	e59ff2cc 	ldr	pc, [pc, #716]	; 15ae90 <sub_FFA95570+0x1c8>

0015abc0 <sub_FF8B6A38>:
  15abc0:	e59ff2cc 	ldr	pc, [pc, #716]	; 15ae94 <sub_FFA95570+0x1cc>

0015abc4 <sub_FF8B6C88>:
  15abc4:	e59ff2cc 	ldr	pc, [pc, #716]	; 15ae98 <sub_FFA95570+0x1d0>

0015abc8 <sub_FF8B70CC>:
  15abc8:	e59ff2cc 	ldr	pc, [pc, #716]	; 15ae9c <sub_FFA95570+0x1d4>

0015abcc <sub_FF8B71D0>:
  15abcc:	e59ff2cc 	ldr	pc, [pc, #716]	; 15aea0 <sub_FFA95570+0x1d8>

0015abd0 <sub_FF8B74B8>:
  15abd0:	e59ff2cc 	ldr	pc, [pc, #716]	; 15aea4 <sub_FFA95570+0x1dc>

0015abd4 <sub_FF8B777C>:
  15abd4:	e59ff2cc 	ldr	pc, [pc, #716]	; 15aea8 <sub_FFA95570+0x1e0>

0015abd8 <sub_FF8B793C>:
  15abd8:	e59ff2cc 	ldr	pc, [pc, #716]	; 15aeac <sub_FFA95570+0x1e4>

0015abdc <sub_FF8B7AA8>:
  15abdc:	e59ff2cc 	ldr	pc, [pc, #716]	; 15aeb0 <sub_FFA95570+0x1e8>

0015abe0 <sub_FF8B7CB4>:
  15abe0:	e59ff2cc 	ldr	pc, [pc, #716]	; 15aeb4 <sub_FFA95570+0x1ec>

0015abe4 <sub_FF8B7F18>:
  15abe4:	e59ff2cc 	ldr	pc, [pc, #716]	; 15aeb8 <sub_FFA95570+0x1f0>

0015abe8 <sub_FF8B9518>:
  15abe8:	e59ff2cc 	ldr	pc, [pc, #716]	; 15aebc <sub_FFA95570+0x1f4>

0015abec <sub_FF8B9844>:
  15abec:	e59ff2cc 	ldr	pc, [pc, #716]	; 15aec0 <sub_FFA95570+0x1f8>

0015abf0 <sub_FF8B98A4>:
  15abf0:	e59ff2cc 	ldr	pc, [pc, #716]	; 15aec4 <sub_FFA95570+0x1fc>

0015abf4 <sub_FF8BAE28>:
  15abf4:	e59ff2cc 	ldr	pc, [pc, #716]	; 15aec8 <sub_FFA95570+0x200>

0015abf8 <sub_FF8BAE88>:
  15abf8:	e59ff2cc 	ldr	pc, [pc, #716]	; 15aecc <sub_FFA95570+0x204>

0015abfc <sub_FF8BAECC>:
  15abfc:	e59ff2cc 	ldr	pc, [pc, #716]	; 15aed0 <sub_FFA95570+0x208>

0015ac00 <sub_FF8BB044>:
  15ac00:	e59ff2cc 	ldr	pc, [pc, #716]	; 15aed4 <sub_FFA95570+0x20c>

0015ac04 <sub_FF8BB0FC>:
  15ac04:	e59ff2cc 	ldr	pc, [pc, #716]	; 15aed8 <sub_FFA95570+0x210>

0015ac08 <sub_FF8BB1A4>:
  15ac08:	e59ff2cc 	ldr	pc, [pc, #716]	; 15aedc <sub_FFA95570+0x214>

0015ac0c <sub_FF8BB248>:
  15ac0c:	e59ff2cc 	ldr	pc, [pc, #716]	; 15aee0 <sub_FFA95570+0x218>

0015ac10 <sub_FF8BB45C>:
  15ac10:	e59ff2cc 	ldr	pc, [pc, #716]	; 15aee4 <sub_FFA95570+0x21c>

0015ac14 <sub_FF8F75C8>:
  15ac14:	e59ff2cc 	ldr	pc, [pc, #716]	; 15aee8 <sub_FFA95570+0x220>

0015ac18 <sub_FF8FA084>:
  15ac18:	e59ff2cc 	ldr	pc, [pc, #716]	; 15aeec <sub_FFA95570+0x224>

0015ac1c <sub_FF933C78>:
  15ac1c:	e59ff2cc 	ldr	pc, [pc, #716]	; 15aef0 <sub_FFA95570+0x228>

0015ac20 <sub_FF96B694>:
  15ac20:	e59ff2cc 	ldr	pc, [pc, #716]	; 15aef4 <sub_FFA95570+0x22c>

0015ac24 <sub_FF96B718>:
  15ac24:	e59ff2cc 	ldr	pc, [pc, #716]	; 15aef8 <sub_FFA95570+0x230>

0015ac28 <sub_FF96B834>:
  15ac28:	e59ff2cc 	ldr	pc, [pc, #716]	; 15aefc <sub_FFA95570+0x234>

0015ac2c <sub_FF9709C0>:
  15ac2c:	e59ff2cc 	ldr	pc, [pc, #716]	; 15af00 <sub_FFA95570+0x238>

0015ac30 <sub_FF970AE0>:
  15ac30:	e59ff2cc 	ldr	pc, [pc, #716]	; 15af04 <sub_FFA95570+0x23c>

0015ac34 <sub_FF970C10>:
  15ac34:	e59ff2cc 	ldr	pc, [pc, #716]	; 15af08 <sub_FFA95570+0x240>

0015ac38 <sub_FF970F94>:
  15ac38:	e59ff2cc 	ldr	pc, [pc, #716]	; 15af0c <sub_FFA95570+0x244>

0015ac3c <sub_FF971F64>:
  15ac3c:	e59ff2cc 	ldr	pc, [pc, #716]	; 15af10 <sub_FFA95570+0x248>

0015ac40 <sub_FF97203C>:
  15ac40:	e59ff2cc 	ldr	pc, [pc, #716]	; 15af14 <sub_FFA95570+0x24c>

0015ac44 <sub_FF975094>:
  15ac44:	e59ff2cc 	ldr	pc, [pc, #716]	; 15af18 <sub_FFA95570+0x250>

0015ac48 <sub_FF9752CC>:
  15ac48:	e59ff2cc 	ldr	pc, [pc, #716]	; 15af1c <sub_FFA95570+0x254>

0015ac4c <sub_FF975388>:
  15ac4c:	e59ff2cc 	ldr	pc, [pc, #716]	; 15af20 <sub_FFA95570+0x258>

0015ac50 <sub_FF97545C>:
  15ac50:	e59ff2cc 	ldr	pc, [pc, #716]	; 15af24 <sub_FFA95570+0x25c>

0015ac54 <sub_FF97552C>:
  15ac54:	e59ff2cc 	ldr	pc, [pc, #716]	; 15af28 <sub_FFA95570+0x260>

0015ac58 <sub_FF97556C>:
  15ac58:	e59ff2cc 	ldr	pc, [pc, #716]	; 15af2c <sub_FFA95570+0x264>

0015ac5c <sub_FF9756BC>:
  15ac5c:	e59ff2cc 	ldr	pc, [pc, #716]	; 15af30 <sub_FFA95570+0x268>

0015ac60 <sub_FF975820>:
  15ac60:	e59ff2cc 	ldr	pc, [pc, #716]	; 15af34 <sub_FFA95570+0x26c>

0015ac64 <sub_FF9758B4>:
  15ac64:	e59ff2cc 	ldr	pc, [pc, #716]	; 15af38 <sub_FFA95570+0x270>

0015ac68 <sub_FF97595C>:
  15ac68:	e59ff2cc 	ldr	pc, [pc, #716]	; 15af3c <sub_FFA95570+0x274>

0015ac6c <sub_FF975A6C>:
  15ac6c:	e59ff2cc 	ldr	pc, [pc, #716]	; 15af40 <sub_FFA95570+0x278>

0015ac70 <sub_FF975ADC>:
  15ac70:	e59ff2cc 	ldr	pc, [pc, #716]	; 15af44 <sub_FFA95570+0x27c>

0015ac74 <sub_FF975B7C>:
  15ac74:	e59ff2cc 	ldr	pc, [pc, #716]	; 15af48 <sub_FFA95570+0x280>

0015ac78 <sub_FF975D00>:
  15ac78:	e59ff2cc 	ldr	pc, [pc, #716]	; 15af4c <sub_FFA95570+0x284>

0015ac7c <sub_FF975D90>:
  15ac7c:	e59ff2cc 	ldr	pc, [pc, #716]	; 15af50 <sub_FFA95570+0x288>

0015ac80 <sub_FF9762E0>:
  15ac80:	e59ff2cc 	ldr	pc, [pc, #716]	; 15af54 <sub_FFA95570+0x28c>

0015ac84 <sub_FF976504>:
  15ac84:	e59ff2cc 	ldr	pc, [pc, #716]	; 15af58 <sub_FFA95570+0x290>

0015ac88 <sub_FF97662C>:
  15ac88:	e59ff2cc 	ldr	pc, [pc, #716]	; 15af5c <sub_FFA95570+0x294>

0015ac8c <sub_FF9767EC>:
  15ac8c:	e59ff2cc 	ldr	pc, [pc, #716]	; 15af60 <sub_FFA95570+0x298>

0015ac90 <sub_FF9F42A8>:
  15ac90:	e59ff2cc 	ldr	pc, [pc, #716]	; 15af64 <sub_FFA95570+0x29c>

0015ac94 <sub_FFA73B18>:
  15ac94:	e59ff2cc 	ldr	pc, [pc, #716]	; 15af68 <sub_FFA95570+0x2a0>

0015ac98 <sub_FFA73BD8>:
  15ac98:	e59ff2cc 	ldr	pc, [pc, #716]	; 15af6c <sub_FFA95570+0x2a4>

0015ac9c <sub_FFA73D64>:
  15ac9c:	e59ff2cc 	ldr	pc, [pc, #716]	; 15af70 <sub_FFA95570+0x2a8>

0015aca0 <sub_FFA73DA8>:
  15aca0:	e59ff2cc 	ldr	pc, [pc, #716]	; 15af74 <sub_FFA95570+0x2ac>

0015aca4 <sub_FFA73DB8>:
  15aca4:	e59ff2cc 	ldr	pc, [pc, #716]	; 15af78 <sub_FFA95570+0x2b0>

0015aca8 <sub_FFA73ECC>:
  15aca8:	e59ff2cc 	ldr	pc, [pc, #716]	; 15af7c <sub_FFA95570+0x2b4>

0015acac <sub_FFA74298>:
  15acac:	e59ff2cc 	ldr	pc, [pc, #716]	; 15af80 <sub_FFA95570+0x2b8>

0015acb0 <sub_FFA90F1C>:
  15acb0:	e59ff2cc 	ldr	pc, [pc, #716]	; 15af84 <sub_FFA95570+0x2bc>

0015acb4 <sub_FFA946A0>:
  15acb4:	e59ff2cc 	ldr	pc, [pc, #716]	; 15af88 <sub_FFA95570+0x2c0>

0015acb8 <sub_FFA94E1C>:
  15acb8:	e59ff2cc 	ldr	pc, [pc, #716]	; 15af8c <sub_FFA95570+0x2c4>

0015acbc <sub_FFA94EA0>:
  15acbc:	e59ff2cc 	ldr	pc, [pc, #716]	; 15af90 <sub_FFA95570+0x2c8>

0015acc0 <sub_FFA94F28>:
  15acc0:	e59ff2cc 	ldr	pc, [pc, #716]	; 15af94 <sub_FFA95570+0x2cc>

0015acc4 <sub_FFA951C0>:
  15acc4:	e59ff2cc 	ldr	pc, [pc, #716]	; 15af98 <sub_FFA95570+0x2d0>

0015acc8 <sub_FFA95570>:
  15acc8:	e59ff2cc 	ldr	pc, [pc, #716]	; 15af9c <sub_FFA95570+0x2d4>
  15accc:	003f27e8 	.word	0x003f27e8
  15acd0:	003f7418 	.word	0x003f7418
  15acd4:	003f765c 	.word	0x003f765c
  15acd8:	003f79e0 	.word	0x003f79e0
  15acdc:	003f7bf8 	.word	0x003f7bf8
  15ace0:	003f7c50 	.word	0x003f7c50
  15ace4:	003f7d90 	.word	0x003f7d90
  15ace8:	003fabf8 	.word	0x003fabf8
  15acec:	003facdc 	.word	0x003facdc
  15acf0:	003fad9c 	.word	0x003fad9c
  15acf4:	003fadd0 	.word	0x003fadd0
  15acf8:	003fc550 	.word	0x003fc550
  15acfc:	003fc738 	.word	0x003fc738
  15ad00:	003fc81c 	.word	0x003fc81c
  15ad04:	ff810380 	.word	0xff810380
  15ad08:	ff810adc 	.word	0xff810adc
  15ad0c:	ff811100 	.word	0xff811100
  15ad10:	ff8115f0 	.word	0xff8115f0
  15ad14:	ff8128f8 	.word	0xff8128f8
  15ad18:	ff813df0 	.word	0xff813df0
  15ad1c:	ff813ed8 	.word	0xff813ed8
  15ad20:	ff8147f8 	.word	0xff8147f8
  15ad24:	ff814918 	.word	0xff814918
  15ad28:	ff814a40 	.word	0xff814a40
  15ad2c:	ff8150a4 	.word	0xff8150a4
  15ad30:	ff81a1fc 	.word	0xff81a1fc
  15ad34:	ff82836c 	.word	0xff82836c
  15ad38:	ff828f34 	.word	0xff828f34
  15ad3c:	ff829ba4 	.word	0xff829ba4
  15ad40:	ff829be0 	.word	0xff829be0
  15ad44:	ff829c40 	.word	0xff829c40
  15ad48:	ff82a1e0 	.word	0xff82a1e0
  15ad4c:	ff82a22c 	.word	0xff82a22c
  15ad50:	ff82a280 	.word	0xff82a280
  15ad54:	ff82a998 	.word	0xff82a998
  15ad58:	ff82bb20 	.word	0xff82bb20
  15ad5c:	ff82c44c 	.word	0xff82c44c
  15ad60:	ff82c4fc 	.word	0xff82c4fc
  15ad64:	ff82d51c 	.word	0xff82d51c
  15ad68:	ff82d7c8 	.word	0xff82d7c8
  15ad6c:	ff82daf8 	.word	0xff82daf8
  15ad70:	ff82e2d4 	.word	0xff82e2d4
  15ad74:	ff82fe80 	.word	0xff82fe80
  15ad78:	ff8310bc 	.word	0xff8310bc
  15ad7c:	ff83128c 	.word	0xff83128c
  15ad80:	ff831500 	.word	0xff831500
  15ad84:	ff831530 	.word	0xff831530
  15ad88:	ff831640 	.word	0xff831640
  15ad8c:	ff83167c 	.word	0xff83167c
  15ad90:	ff8317e0 	.word	0xff8317e0
  15ad94:	ff831bd8 	.word	0xff831bd8
  15ad98:	ff831e58 	.word	0xff831e58
  15ad9c:	ff831e60 	.word	0xff831e60
  15ada0:	ff850cec 	.word	0xff850cec
  15ada4:	ff85fbe4 	.word	0xff85fbe4
  15ada8:	ff86264c 	.word	0xff86264c
  15adac:	ff8727e4 	.word	0xff8727e4
  15adb0:	ff8727fc 	.word	0xff8727fc
  15adb4:	ff8730a8 	.word	0xff8730a8
  15adb8:	ff87372c 	.word	0xff87372c
  15adbc:	ff873868 	.word	0xff873868
  15adc0:	ff875978 	.word	0xff875978
  15adc4:	ff87af98 	.word	0xff87af98
  15adc8:	ff87b678 	.word	0xff87b678
  15adcc:	ff87b80c 	.word	0xff87b80c
  15add0:	ff87c990 	.word	0xff87c990
  15add4:	ff87d730 	.word	0xff87d730
  15add8:	ff87dab4 	.word	0xff87dab4
  15addc:	ff87dabc 	.word	0xff87dabc
  15ade0:	ff87dac4 	.word	0xff87dac4
  15ade4:	ff87dad8 	.word	0xff87dad8
  15ade8:	ff87dcd8 	.word	0xff87dcd8
  15adec:	ff87dd6c 	.word	0xff87dd6c
  15adf0:	ff87de00 	.word	0xff87de00
  15adf4:	ff87df68 	.word	0xff87df68
  15adf8:	ff87df94 	.word	0xff87df94
  15adfc:	ff87e310 	.word	0xff87e310
  15ae00:	ff87e71c 	.word	0xff87e71c
  15ae04:	ff87e780 	.word	0xff87e780
  15ae08:	ff87ea94 	.word	0xff87ea94
  15ae0c:	ff87eaec 	.word	0xff87eaec
  15ae10:	ff880b88 	.word	0xff880b88
  15ae14:	ff880c74 	.word	0xff880c74
  15ae18:	ff880ccc 	.word	0xff880ccc
  15ae1c:	ff880e00 	.word	0xff880e00
  15ae20:	ff88114c 	.word	0xff88114c
  15ae24:	ff882730 	.word	0xff882730
  15ae28:	ff882998 	.word	0xff882998
  15ae2c:	ff88bfac 	.word	0xff88bfac
  15ae30:	ff88c040 	.word	0xff88c040
  15ae34:	ff88e930 	.word	0xff88e930
  15ae38:	ff88e964 	.word	0xff88e964
  15ae3c:	ff89d31c 	.word	0xff89d31c
  15ae40:	ff8a3dd8 	.word	0xff8a3dd8
  15ae44:	ff8a4068 	.word	0xff8a4068
  15ae48:	ff8a40d4 	.word	0xff8a40d4
  15ae4c:	ff8a4388 	.word	0xff8a4388
  15ae50:	ff8a4c58 	.word	0xff8a4c58
  15ae54:	ff8a5144 	.word	0xff8a5144
  15ae58:	ff8ac910 	.word	0xff8ac910
  15ae5c:	ff8b5000 	.word	0xff8b5000
  15ae60:	ff8b51bc 	.word	0xff8b51bc
  15ae64:	ff8b5214 	.word	0xff8b5214
  15ae68:	ff8b526c 	.word	0xff8b526c
  15ae6c:	ff8b52c4 	.word	0xff8b52c4
  15ae70:	ff8b535c 	.word	0xff8b535c
  15ae74:	ff8b54c8 	.word	0xff8b54c8
  15ae78:	ff8b557c 	.word	0xff8b557c
  15ae7c:	ff8b5838 	.word	0xff8b5838
  15ae80:	ff8b5a64 	.word	0xff8b5a64
  15ae84:	ff8b5d90 	.word	0xff8b5d90
  15ae88:	ff8b5fac 	.word	0xff8b5fac
  15ae8c:	ff8b636c 	.word	0xff8b636c
  15ae90:	ff8b64b0 	.word	0xff8b64b0
  15ae94:	ff8b6a38 	.word	0xff8b6a38
  15ae98:	ff8b6c88 	.word	0xff8b6c88
  15ae9c:	ff8b70cc 	.word	0xff8b70cc
  15aea0:	ff8b71d0 	.word	0xff8b71d0
  15aea4:	ff8b74b8 	.word	0xff8b74b8
  15aea8:	ff8b777c 	.word	0xff8b777c
  15aeac:	ff8b793c 	.word	0xff8b793c
  15aeb0:	ff8b7aa8 	.word	0xff8b7aa8
  15aeb4:	ff8b7cb4 	.word	0xff8b7cb4
  15aeb8:	ff8b7f18 	.word	0xff8b7f18
  15aebc:	ff8b9518 	.word	0xff8b9518
  15aec0:	ff8b9844 	.word	0xff8b9844
  15aec4:	ff8b98a4 	.word	0xff8b98a4
  15aec8:	ff8bae28 	.word	0xff8bae28
  15aecc:	ff8bae88 	.word	0xff8bae88
  15aed0:	ff8baecc 	.word	0xff8baecc
  15aed4:	ff8bb044 	.word	0xff8bb044
  15aed8:	ff8bb0fc 	.word	0xff8bb0fc
  15aedc:	ff8bb1a4 	.word	0xff8bb1a4
  15aee0:	ff8bb248 	.word	0xff8bb248
  15aee4:	ff8bb45c 	.word	0xff8bb45c
  15aee8:	ff8f75c8 	.word	0xff8f75c8
  15aeec:	ff8fa084 	.word	0xff8fa084
  15aef0:	ff933c78 	.word	0xff933c78
  15aef4:	ff96b694 	.word	0xff96b694
  15aef8:	ff96b718 	.word	0xff96b718
  15aefc:	ff96b834 	.word	0xff96b834
  15af00:	ff9709c0 	.word	0xff9709c0
  15af04:	ff970ae0 	.word	0xff970ae0
  15af08:	ff970c10 	.word	0xff970c10
  15af0c:	ff970f94 	.word	0xff970f94
  15af10:	ff971f64 	.word	0xff971f64
  15af14:	ff97203c 	.word	0xff97203c
  15af18:	ff975094 	.word	0xff975094
  15af1c:	ff9752cc 	.word	0xff9752cc
  15af20:	ff975388 	.word	0xff975388
  15af24:	ff97545c 	.word	0xff97545c
  15af28:	ff97552c 	.word	0xff97552c
  15af2c:	ff97556c 	.word	0xff97556c
  15af30:	ff9756bc 	.word	0xff9756bc
  15af34:	ff975820 	.word	0xff975820
  15af38:	ff9758b4 	.word	0xff9758b4
  15af3c:	ff97595c 	.word	0xff97595c
  15af40:	ff975a6c 	.word	0xff975a6c
  15af44:	ff975adc 	.word	0xff975adc
  15af48:	ff975b7c 	.word	0xff975b7c
  15af4c:	ff975d00 	.word	0xff975d00
  15af50:	ff975d90 	.word	0xff975d90
  15af54:	ff9762e0 	.word	0xff9762e0
  15af58:	ff976504 	.word	0xff976504
  15af5c:	ff97662c 	.word	0xff97662c
  15af60:	ff9767ec 	.word	0xff9767ec
  15af64:	ff9f42a8 	.word	0xff9f42a8
  15af68:	ffa73b18 	.word	0xffa73b18
  15af6c:	ffa73bd8 	.word	0xffa73bd8
  15af70:	ffa73d64 	.word	0xffa73d64
  15af74:	ffa73da8 	.word	0xffa73da8
  15af78:	ffa73db8 	.word	0xffa73db8
  15af7c:	ffa73ecc 	.word	0xffa73ecc
  15af80:	ffa74298 	.word	0xffa74298
  15af84:	ffa90f1c 	.word	0xffa90f1c
  15af88:	ffa946a0 	.word	0xffa946a0
  15af8c:	ffa94e1c 	.word	0xffa94e1c
  15af90:	ffa94ea0 	.word	0xffa94ea0
  15af94:	ffa94f28 	.word	0xffa94f28
  15af98:	ffa951c0 	.word	0xffa951c0
  15af9c:	ffa95570 	.word	0xffa95570

0015afa0 <_AllocateUncacheableMemory>:
  15afa0:	e59ff210 	ldr	pc, [pc, #528]	; 15b1b8 <_EngDrvRead+0x4>

0015afa4 <_Close>:
  15afa4:	e59ff210 	ldr	pc, [pc, #528]	; 15b1bc <_EngDrvRead+0x8>

0015afa8 <_CreateTask>:
  15afa8:	e59ff210 	ldr	pc, [pc, #528]	; 15b1c0 <_EngDrvRead+0xc>

0015afac <_DebugAssert>:
  15afac:	e59ff210 	ldr	pc, [pc, #528]	; 15b1c4 <_EngDrvRead+0x10>

0015afb0 <_DeleteDirectory_Fut>:
  15afb0:	e59ff210 	ldr	pc, [pc, #528]	; 15b1c8 <_EngDrvRead+0x14>

0015afb4 <_DoAELock>:
  15afb4:	e59ff210 	ldr	pc, [pc, #528]	; 15b1cc <_EngDrvRead+0x18>

0015afb8 <_DoAFLock>:
  15afb8:	e59ff210 	ldr	pc, [pc, #528]	; 15b1d0 <_EngDrvRead+0x1c>

0015afbc <_EnterToCompensationEVF>:
  15afbc:	e59ff210 	ldr	pc, [pc, #528]	; 15b1d4 <_EngDrvRead+0x20>

0015afc0 <_ExecuteEventProcedure>:
  15afc0:	e59ff210 	ldr	pc, [pc, #528]	; 15b1d8 <_EngDrvRead+0x24>

0015afc4 <_ExitFromCompensationEVF>:
  15afc4:	e59ff210 	ldr	pc, [pc, #528]	; 15b1dc <_EngDrvRead+0x28>

0015afc8 <_ExitTask>:
  15afc8:	e59ff210 	ldr	pc, [pc, #528]	; 15b1e0 <_EngDrvRead+0x2c>

0015afcc <_ExpCtrlTool_StartContiAE>:
  15afcc:	e59ff210 	ldr	pc, [pc, #528]	; 15b1e4 <_EngDrvRead+0x30>

0015afd0 <_ExpCtrlTool_StopContiAE>:
  15afd0:	e59ff210 	ldr	pc, [pc, #528]	; 15b1e8 <_EngDrvRead+0x34>

0015afd4 <_Fclose_Fut>:
  15afd4:	e59ff210 	ldr	pc, [pc, #528]	; 15b1ec <_EngDrvRead+0x38>

0015afd8 <_Feof_Fut>:
  15afd8:	e59ff210 	ldr	pc, [pc, #528]	; 15b1f0 <_EngDrvRead+0x3c>

0015afdc <_Fflush_Fut>:
  15afdc:	e59ff210 	ldr	pc, [pc, #528]	; 15b1f4 <_EngDrvRead+0x40>

0015afe0 <_Fgets_Fut>:
  15afe0:	e59ff210 	ldr	pc, [pc, #528]	; 15b1f8 <_EngDrvRead+0x44>

0015afe4 <_Fopen_Fut>:
  15afe4:	e59ff210 	ldr	pc, [pc, #528]	; 15b1fc <_EngDrvRead+0x48>

0015afe8 <_Fread_Fut>:
  15afe8:	e59ff210 	ldr	pc, [pc, #528]	; 15b200 <_EngDrvRead+0x4c>

0015afec <_FreeUncacheableMemory>:
  15afec:	e59ff210 	ldr	pc, [pc, #528]	; 15b204 <_EngDrvRead+0x50>

0015aff0 <_Fseek_Fut>:
  15aff0:	e59ff210 	ldr	pc, [pc, #528]	; 15b208 <_EngDrvRead+0x54>

0015aff4 <_Fwrite_Fut>:
  15aff4:	e59ff210 	ldr	pc, [pc, #528]	; 15b20c <_EngDrvRead+0x58>

0015aff8 <_GetCCDTemperature>:
  15aff8:	e59ff210 	ldr	pc, [pc, #528]	; 15b210 <_EngDrvRead+0x5c>

0015affc <_GetCurrentAvValue>:
  15affc:	e59ff210 	ldr	pc, [pc, #528]	; 15b214 <_EngDrvRead+0x60>

0015b000 <_GetDrive_ClusterSize>:
  15b000:	e59ff210 	ldr	pc, [pc, #528]	; 15b218 <_EngDrvRead+0x64>

0015b004 <_GetDrive_FreeClusters>:
  15b004:	e59ff210 	ldr	pc, [pc, #528]	; 15b21c <_EngDrvRead+0x68>

0015b008 <_GetDrive_TotalClusters>:
  15b008:	e59ff210 	ldr	pc, [pc, #528]	; 15b220 <_EngDrvRead+0x6c>

0015b00c <_GetFocusLensSubjectDistance>:
  15b00c:	e59ff210 	ldr	pc, [pc, #528]	; 15b224 <_EngDrvRead+0x70>

0015b010 <_GetFocusLensSubjectDistanceFromLens>:
  15b010:	e59ff210 	ldr	pc, [pc, #528]	; 15b228 <_EngDrvRead+0x74>

0015b014 <_GetImageFolder>:
  15b014:	e59ff210 	ldr	pc, [pc, #528]	; 15b22c <_EngDrvRead+0x78>

0015b018 <_GetKbdState>:
  15b018:	e59ff210 	ldr	pc, [pc, #528]	; 15b230 <_EngDrvRead+0x7c>

0015b01c <_GetMemInfo>:
  15b01c:	e59ff210 	ldr	pc, [pc, #528]	; 15b234 <_EngDrvRead+0x80>

0015b020 <_GetOpticalTemperature>:
  15b020:	e59ff210 	ldr	pc, [pc, #528]	; 15b238 <_EngDrvRead+0x84>

0015b024 <_GetParameterData>:
  15b024:	e59ff210 	ldr	pc, [pc, #528]	; 15b23c <_EngDrvRead+0x88>

0015b028 <_GetPropertyCase>:
  15b028:	e59ff210 	ldr	pc, [pc, #528]	; 15b240 <_EngDrvRead+0x8c>

0015b02c <_GetSystemTime>:
  15b02c:	e59ff210 	ldr	pc, [pc, #528]	; 15b244 <_EngDrvRead+0x90>

0015b030 <_GetVRAMHPixelsSize>:
  15b030:	e59ff210 	ldr	pc, [pc, #528]	; 15b248 <_EngDrvRead+0x94>

0015b034 <_GetVRAMVPixelsSize>:
  15b034:	e59ff210 	ldr	pc, [pc, #528]	; 15b24c <_EngDrvRead+0x98>

0015b038 <_GetZoomLensCurrentPoint>:
  15b038:	e59ff210 	ldr	pc, [pc, #528]	; 15b250 <_EngDrvRead+0x9c>

0015b03c <_GetZoomLensCurrentPosition>:
  15b03c:	e59ff210 	ldr	pc, [pc, #528]	; 15b254 <_EngDrvRead+0xa0>

0015b040 <_GiveSemaphore>:
  15b040:	e59ff210 	ldr	pc, [pc, #528]	; 15b258 <_EngDrvRead+0xa4>

0015b044 <_IsStrobeChargeCompleted>:
  15b044:	e59ff210 	ldr	pc, [pc, #528]	; 15b25c <_EngDrvRead+0xa8>

0015b048 <_LEDDrive>:
  15b048:	e59ff210 	ldr	pc, [pc, #528]	; 15b260 <_EngDrvRead+0xac>

0015b04c <_LocalTime>:
  15b04c:	e59ff210 	ldr	pc, [pc, #528]	; 15b264 <_EngDrvRead+0xb0>

0015b050 <_LockMainPower>:
  15b050:	e59ff210 	ldr	pc, [pc, #528]	; 15b268 <_EngDrvRead+0xb4>

0015b054 <_MakeSDCardBootable>:
  15b054:	e59ff210 	ldr	pc, [pc, #528]	; 15b26c <_EngDrvRead+0xb8>

0015b058 <_MoveFocusLensToDistance>:
  15b058:	e59ff210 	ldr	pc, [pc, #528]	; 15b270 <_EngDrvRead+0xbc>

0015b05c <_MoveIrisWithAv>:
  15b05c:	e59ff210 	ldr	pc, [pc, #528]	; 15b274 <_EngDrvRead+0xc0>

0015b060 <_MoveZoomLensWithPoint>:
  15b060:	e59ff210 	ldr	pc, [pc, #528]	; 15b278 <_EngDrvRead+0xc4>

0015b064 <_Open>:
  15b064:	e59ff210 	ldr	pc, [pc, #528]	; 15b27c <_EngDrvRead+0xc8>

0015b068 <_PB2Rec>:
  15b068:	e59ff210 	ldr	pc, [pc, #528]	; 15b280 <_EngDrvRead+0xcc>

0015b06c <_PT_MoveDigitalZoomToWide>:
  15b06c:	e59ff210 	ldr	pc, [pc, #528]	; 15b284 <_EngDrvRead+0xd0>

0015b070 <_PT_MoveOpticalZoomAt>:
  15b070:	e59ff210 	ldr	pc, [pc, #528]	; 15b288 <_EngDrvRead+0xd4>

0015b074 <_PT_PlaySound>:
  15b074:	e59ff210 	ldr	pc, [pc, #528]	; 15b28c <_EngDrvRead+0xd8>

0015b078 <_PostLogicalEventForNotPowerType>:
  15b078:	e59ff210 	ldr	pc, [pc, #528]	; 15b290 <_EngDrvRead+0xdc>

0015b07c <_PostLogicalEventToUI>:
  15b07c:	e59ff210 	ldr	pc, [pc, #528]	; 15b294 <_EngDrvRead+0xe0>

0015b080 <_PutInNdFilter>:
  15b080:	e59ff210 	ldr	pc, [pc, #528]	; 15b298 <_EngDrvRead+0xe4>

0015b084 <_PutOutNdFilter>:
  15b084:	e59ff210 	ldr	pc, [pc, #528]	; 15b29c <_EngDrvRead+0xe8>

0015b088 <_Read>:
  15b088:	e59ff210 	ldr	pc, [pc, #528]	; 15b2a0 <_EngDrvRead+0xec>

0015b08c <_ReadFastDir>:
  15b08c:	e59ff210 	ldr	pc, [pc, #528]	; 15b2a4 <_EngDrvRead+0xf0>

0015b090 <_Rec2PB>:
  15b090:	e59ff210 	ldr	pc, [pc, #528]	; 15b2a8 <_EngDrvRead+0xf4>

0015b094 <_RenameFile_Fut>:
  15b094:	e59ff210 	ldr	pc, [pc, #528]	; 15b2ac <_EngDrvRead+0xf8>

0015b098 <_ScreenLock>:
  15b098:	e59ff210 	ldr	pc, [pc, #528]	; 15b2b0 <_EngDrvRead+0xfc>

0015b09c <_ScreenUnlock>:
  15b09c:	e59ff210 	ldr	pc, [pc, #528]	; 15b2b4 <_EngDrvRead+0x100>

0015b0a0 <_SetAE_ShutterSpeed>:
  15b0a0:	e59ff210 	ldr	pc, [pc, #528]	; 15b2b8 <_EngDrvRead+0x104>

0015b0a4 <_SetAutoShutdownTime>:
  15b0a4:	e59ff210 	ldr	pc, [pc, #528]	; 15b2bc <_EngDrvRead+0x108>

0015b0a8 <_SetCurrentCaptureModeType>:
  15b0a8:	e59ff210 	ldr	pc, [pc, #528]	; 15b2c0 <_EngDrvRead+0x10c>

0015b0ac <_SetFileAttributes>:
  15b0ac:	e59ff210 	ldr	pc, [pc, #528]	; 15b2c4 <_EngDrvRead+0x110>

0015b0b0 <_SetFileTimeStamp>:
  15b0b0:	e59ff210 	ldr	pc, [pc, #528]	; 15b2c8 <_EngDrvRead+0x114>

0015b0b4 <_SetLogicalEventActive>:
  15b0b4:	e59ff210 	ldr	pc, [pc, #528]	; 15b2cc <_EngDrvRead+0x118>

0015b0b8 <_SetParameterData>:
  15b0b8:	e59ff210 	ldr	pc, [pc, #528]	; 15b2d0 <_EngDrvRead+0x11c>

0015b0bc <_SetPropertyCase>:
  15b0bc:	e59ff210 	ldr	pc, [pc, #528]	; 15b2d4 <_EngDrvRead+0x120>

0015b0c0 <_SetScriptMode>:
  15b0c0:	e59ff210 	ldr	pc, [pc, #528]	; 15b2d8 <_EngDrvRead+0x124>

0015b0c4 <_SleepTask>:
  15b0c4:	e59ff210 	ldr	pc, [pc, #528]	; 15b2dc <_EngDrvRead+0x128>

0015b0c8 <_TakeSemaphore>:
  15b0c8:	e59ff210 	ldr	pc, [pc, #528]	; 15b2e0 <_EngDrvRead+0x12c>

0015b0cc <_TurnOffBackLight>:
  15b0cc:	e59ff210 	ldr	pc, [pc, #528]	; 15b2e4 <_EngDrvRead+0x130>

0015b0d0 <_TurnOnBackLight>:
  15b0d0:	e59ff210 	ldr	pc, [pc, #528]	; 15b2e8 <_EngDrvRead+0x134>

0015b0d4 <_TurnOnDisplay>:
  15b0d4:	e59ff210 	ldr	pc, [pc, #528]	; 15b2ec <_EngDrvRead+0x138>

0015b0d8 <_TurnOffDisplay>:
  15b0d8:	e59ff210 	ldr	pc, [pc, #528]	; 15b2f0 <_EngDrvRead+0x13c>

0015b0dc <_UIFS_WriteFirmInfoToFile>:
  15b0dc:	e59ff210 	ldr	pc, [pc, #528]	; 15b2f4 <_EngDrvRead+0x140>

0015b0e0 <_UnlockAE>:
  15b0e0:	e59ff210 	ldr	pc, [pc, #528]	; 15b2f8 <_EngDrvRead+0x144>

0015b0e4 <_UnlockAF>:
  15b0e4:	e59ff210 	ldr	pc, [pc, #528]	; 15b2fc <_EngDrvRead+0x148>

0015b0e8 <_UnlockMainPower>:
  15b0e8:	e59ff210 	ldr	pc, [pc, #528]	; 15b300 <_EngDrvRead+0x14c>

0015b0ec <_UnsetZoomForMovie>:
  15b0ec:	e59ff210 	ldr	pc, [pc, #528]	; 15b304 <_EngDrvRead+0x150>

0015b0f0 <_VbattGet>:
  15b0f0:	e59ff210 	ldr	pc, [pc, #528]	; 15b308 <_EngDrvRead+0x154>

0015b0f4 <_Write>:
  15b0f4:	e59ff210 	ldr	pc, [pc, #528]	; 15b30c <_EngDrvRead+0x158>

0015b0f8 <_WriteSDCard>:
  15b0f8:	e59ff210 	ldr	pc, [pc, #528]	; 15b310 <_EngDrvRead+0x15c>

0015b0fc <__log>:
  15b0fc:	e59ff210 	ldr	pc, [pc, #528]	; 15b314 <_EngDrvRead+0x160>

0015b100 <__log10>:
  15b100:	e59ff210 	ldr	pc, [pc, #528]	; 15b318 <_EngDrvRead+0x164>

0015b104 <__pow>:
  15b104:	e59ff210 	ldr	pc, [pc, #528]	; 15b31c <_EngDrvRead+0x168>

0015b108 <__sqrt>:
  15b108:	e59ff210 	ldr	pc, [pc, #528]	; 15b320 <_EngDrvRead+0x16c>

0015b10c <_add_ptp_handler>:
  15b10c:	e59ff210 	ldr	pc, [pc, #528]	; 15b324 <_EngDrvRead+0x170>

0015b110 <_apex2us>:
  15b110:	e59ff210 	ldr	pc, [pc, #528]	; 15b328 <_EngDrvRead+0x174>

0015b114 <_close>:
  15b114:	e59ff210 	ldr	pc, [pc, #528]	; 15b32c <_EngDrvRead+0x178>

0015b118 <_err_init_task>:
  15b118:	e59ff210 	ldr	pc, [pc, #528]	; 15b330 <_EngDrvRead+0x17c>

0015b11c <_exmem_alloc>:
  15b11c:	e59ff210 	ldr	pc, [pc, #528]	; 15b334 <_EngDrvRead+0x180>

0015b120 <_exmem_free>:
  15b120:	e59ff210 	ldr	pc, [pc, #528]	; 15b338 <_EngDrvRead+0x184>

0015b124 <_free>:
  15b124:	e59ff210 	ldr	pc, [pc, #528]	; 15b33c <_EngDrvRead+0x188>

0015b128 <_kbd_p1_f>:
  15b128:	e59ff210 	ldr	pc, [pc, #528]	; 15b340 <_EngDrvRead+0x18c>

0015b12c <_kbd_p1_f_cont>:
  15b12c:	e59ff210 	ldr	pc, [pc, #528]	; 15b344 <_EngDrvRead+0x190>

0015b130 <_kbd_p2_f>:
  15b130:	e59ff210 	ldr	pc, [pc, #528]	; 15b348 <_EngDrvRead+0x194>

0015b134 <_kbd_read_keys>:
  15b134:	e59ff210 	ldr	pc, [pc, #528]	; 15b34c <_EngDrvRead+0x198>

0015b138 <_kbd_read_keys_r2>:
  15b138:	e59ff210 	ldr	pc, [pc, #528]	; 15b350 <_EngDrvRead+0x19c>

0015b13c <_lseek>:
  15b13c:	e59ff210 	ldr	pc, [pc, #528]	; 15b354 <_EngDrvRead+0x1a0>

0015b140 <_malloc>:
  15b140:	e59ff210 	ldr	pc, [pc, #528]	; 15b358 <_EngDrvRead+0x1a4>

0015b144 <_memcmp>:
  15b144:	e59ff210 	ldr	pc, [pc, #528]	; 15b35c <_EngDrvRead+0x1a8>

0015b148 <_memcpy>:
  15b148:	e59ff210 	ldr	pc, [pc, #528]	; 15b360 <_EngDrvRead+0x1ac>

0015b14c <_memset>:
  15b14c:	e59ff210 	ldr	pc, [pc, #528]	; 15b364 <_EngDrvRead+0x1b0>

0015b150 <_mkdir>:
  15b150:	e59ff210 	ldr	pc, [pc, #528]	; 15b368 <_EngDrvRead+0x1b4>

0015b154 <_mktime_ext>:
  15b154:	e59ff210 	ldr	pc, [pc, #528]	; 15b36c <_EngDrvRead+0x1b8>

0015b158 <_open>:
  15b158:	e59ff210 	ldr	pc, [pc, #528]	; 15b370 <_EngDrvRead+0x1bc>

0015b15c <_OpenFastDir>:
  15b15c:	e59ff210 	ldr	pc, [pc, #528]	; 15b374 <_EngDrvRead+0x1c0>

0015b160 <_closedir>:
  15b160:	e59ff210 	ldr	pc, [pc, #528]	; 15b378 <_EngDrvRead+0x1c4>

0015b164 <_qsort>:
  15b164:	e59ff210 	ldr	pc, [pc, #528]	; 15b37c <_EngDrvRead+0x1c8>

0015b168 <_rand>:
  15b168:	e59ff210 	ldr	pc, [pc, #528]	; 15b380 <_EngDrvRead+0x1cc>

0015b16c <_realloc>:
  15b16c:	e59ff210 	ldr	pc, [pc, #528]	; 15b384 <_EngDrvRead+0x1d0>

0015b170 <_reboot_fw_update>:
  15b170:	e59ff210 	ldr	pc, [pc, #528]	; 15b388 <_EngDrvRead+0x1d4>

0015b174 <_set_control_event>:
  15b174:	e59ff210 	ldr	pc, [pc, #528]	; 15b38c <_EngDrvRead+0x1d8>

0015b178 <_srand>:
  15b178:	e59ff210 	ldr	pc, [pc, #528]	; 15b390 <_EngDrvRead+0x1dc>

0015b17c <_stat>:
  15b17c:	e59ff210 	ldr	pc, [pc, #528]	; 15b394 <_EngDrvRead+0x1e0>

0015b180 <_strcat>:
  15b180:	e59ff210 	ldr	pc, [pc, #528]	; 15b398 <_EngDrvRead+0x1e4>

0015b184 <_strchr>:
  15b184:	e59ff210 	ldr	pc, [pc, #528]	; 15b39c <_EngDrvRead+0x1e8>

0015b188 <_strcmp>:
  15b188:	e59ff210 	ldr	pc, [pc, #528]	; 15b3a0 <_EngDrvRead+0x1ec>

0015b18c <_strcpy>:
  15b18c:	e59ff210 	ldr	pc, [pc, #528]	; 15b3a4 <_EngDrvRead+0x1f0>

0015b190 <_strftime>:
  15b190:	e59ff210 	ldr	pc, [pc, #528]	; 15b3a8 <_EngDrvRead+0x1f4>

0015b194 <_strlen>:
  15b194:	e59ff210 	ldr	pc, [pc, #528]	; 15b3ac <_EngDrvRead+0x1f8>

0015b198 <_strncmp>:
  15b198:	e59ff210 	ldr	pc, [pc, #528]	; 15b3b0 <_EngDrvRead+0x1fc>

0015b19c <_strncpy>:
  15b19c:	e59ff210 	ldr	pc, [pc, #528]	; 15b3b4 <_EngDrvRead+0x200>

0015b1a0 <_strrchr>:
  15b1a0:	e59ff210 	ldr	pc, [pc, #528]	; 15b3b8 <_EngDrvRead+0x204>

0015b1a4 <_strtol>:
  15b1a4:	e59ff210 	ldr	pc, [pc, #528]	; 15b3bc <_EngDrvRead+0x208>

0015b1a8 <_strtolx>:
  15b1a8:	e59ff210 	ldr	pc, [pc, #528]	; 15b3c0 <_EngDrvRead+0x20c>

0015b1ac <_time>:
  15b1ac:	e59ff210 	ldr	pc, [pc, #528]	; 15b3c4 <_EngDrvRead+0x210>

0015b1b0 <_vsprintf>:
  15b1b0:	e59ff210 	ldr	pc, [pc, #528]	; 15b3c8 <_EngDrvRead+0x214>

0015b1b4 <_EngDrvRead>:
  15b1b4:	e59ff210 	ldr	pc, [pc, #528]	; 15b3cc <_EngDrvRead+0x218>
  15b1b8:	ff831d54 	.word	0xff831d54
  15b1bc:	ff82d46c 	.word	0xff82d46c
  15b1c0:	003f68b0 	.word	0x003f68b0
  15b1c4:	003f6c28 	.word	0x003f6c28
  15b1c8:	ff82ce6c 	.word	0xff82ce6c
  15b1cc:	ff82ef2c 	.word	0xff82ef2c
  15b1d0:	ff82ec4c 	.word	0xff82ec4c
  15b1d4:	ff82ee94 	.word	0xff82ee94
  15b1d8:	ff889d44 	.word	0xff889d44
  15b1dc:	ff82eed8 	.word	0xff82eed8
  15b1e0:	003f6b40 	.word	0x003f6b40
  15b1e4:	ff83e6bc 	.word	0xff83e6bc
  15b1e8:	ff83e830 	.word	0xff83e830
  15b1ec:	ff82cf04 	.word	0xff82cf04
  15b1f0:	ff82d0f0 	.word	0xff82d0f0
  15b1f4:	ff82d12c 	.word	0xff82d12c
  15b1f8:	ff82d058 	.word	0xff82d058
  15b1fc:	ff82cec4 	.word	0xff82cec4
  15b200:	ff82cfb0 	.word	0xff82cfb0
  15b204:	ff831d94 	.word	0xff831d94
  15b208:	ff82d0a4 	.word	0xff82d0a4
  15b20c:	ff82d004 	.word	0xff82d004
  15b210:	ff862f5c 	.word	0xff862f5c
  15b214:	ff96b8cc 	.word	0xff96b8cc
  15b218:	ff874e6c 	.word	0xff874e6c
  15b21c:	ff875680 	.word	0xff875680
  15b220:	ff875658 	.word	0xff875658
  15b224:	ff96ab98 	.word	0xff96ab98
  15b228:	ff96af2c 	.word	0xff96af2c
  15b22c:	ff94aeac 	.word	0xff94aeac
  15b230:	ff861738 	.word	0xff861738
  15b234:	ff814fcc 	.word	0xff814fcc
  15b238:	ff863048 	.word	0xff863048
  15b23c:	ff9851d4 	.word	0xff9851d4
  15b240:	ff88e0f8 	.word	0xff88e0f8
  15b244:	ffa981fc 	.word	0xffa981fc
  15b248:	ff84a9b4 	.word	0xff84a9b4
  15b24c:	ff84a9c0 	.word	0xff84a9c0
  15b250:	ff96d448 	.word	0xff96d448
  15b254:	ffa88d50 	.word	0xffa88d50
  15b258:	003f7904 	.word	0x003f7904
  15b25c:	ff8d4254 	.word	0xff8d4254
  15b260:	ff972694 	.word	0xff972694
  15b264:	003fb2e8 	.word	0x003fb2e8
  15b268:	ff89056c 	.word	0xff89056c
  15b26c:	ff875b04 	.word	0xff875b04
  15b270:	ffb10c84 	.word	0xffb10c84
  15b274:	ffa9371c 	.word	0xffa9371c
  15b278:	ffa93e4c 	.word	0xffa93e4c
  15b27c:	ff82d3a4 	.word	0xff82d3a4
  15b280:	ff852db8 	.word	0xff852db8
  15b284:	ff973794 	.word	0xff973794
  15b288:	ff973764 	.word	0xff973764
  15b28c:	ff89cc54 	.word	0xff89cc54
  15b290:	ff88fc5c 	.word	0xff88fc5c
  15b294:	ff88fca8 	.word	0xff88fca8
  15b298:	ffa93c24 	.word	0xffa93c24
  15b29c:	ffa93c48 	.word	0xffa93c48
  15b2a0:	ff815a88 	.word	0xff815a88
  15b2a4:	ffa77d8c 	.word	0xffa77d8c
  15b2a8:	ff852df8 	.word	0xff852df8
  15b2ac:	ff82cd64 	.word	0xff82cd64
  15b2b0:	ff894df8 	.word	0xff894df8
  15b2b4:	ff894e4c 	.word	0xff894e4c
  15b2b8:	ffb13ff4 	.word	0xffb13ff4
  15b2bc:	ff8905e0 	.word	0xff8905e0
  15b2c0:	ff89b0b0 	.word	0xff89b0b0
  15b2c4:	ff82d870 	.word	0xff82d870
  15b2c8:	ff82d7f8 	.word	0xff82d7f8
  15b2cc:	ff8902e4 	.word	0xff8902e4
  15b2d0:	ff985140 	.word	0xff985140
  15b2d4:	ff88df68 	.word	0xff88df68
  15b2d8:	ff890334 	.word	0xff890334
  15b2dc:	003f7bb0 	.word	0x003f7bb0
  15b2e0:	003f7834 	.word	0x003f7834
  15b2e4:	ff89c520 	.word	0xff89c520
  15b2e8:	ff89c508 	.word	0xff89c508
  15b2ec:	ff85d2a0 	.word	0xff85d2a0
  15b2f0:	ff85d2b0 	.word	0xff85d2b0
  15b2f4:	ff9a08f0 	.word	0xff9a08f0
  15b2f8:	ff82ef50 	.word	0xff82ef50
  15b2fc:	ff82ec7c 	.word	0xff82ec7c
  15b300:	ff8904c0 	.word	0xff8904c0
  15b304:	ff9166b4 	.word	0xff9166b4
  15b308:	ff829b04 	.word	0xff829b04
  15b30c:	ff82d4c0 	.word	0xff82d4c0
  15b310:	ff95c6bc 	.word	0xff95c6bc
  15b314:	003fd0b0 	.word	0x003fd0b0
  15b318:	003fd5f0 	.word	0x003fd5f0
  15b31c:	003fd768 	.word	0x003fd768
  15b320:	003ff38c 	.word	0x003ff38c
  15b324:	ffa31728 	.word	0xffa31728
  15b328:	ff9ed768 	.word	0xff9ed768
  15b32c:	ff8158e4 	.word	0xff8158e4
  15b330:	ff8142ac 	.word	0xff8142ac
  15b334:	ff88870c 	.word	0xff88870c
  15b338:	ff888784 	.word	0xff888784
  15b33c:	ff812ea8 	.word	0xff812ea8
  15b340:	ff82ad0c 	.word	0xff82ad0c
  15b344:	ff82ad18 	.word	0xff82ad18
  15b348:	ff82a4a4 	.word	0xff82a4a4
  15b34c:	ff82acbc 	.word	0xff82acbc
  15b350:	ff861248 	.word	0xff861248
  15b354:	ff82d688 	.word	0xff82d688
  15b358:	ff812e50 	.word	0xff812e50
  15b35c:	ff81a938 	.word	0xff81a938
  15b360:	ff832128 	.word	0xff832128
  15b364:	ff89febc 	.word	0xff89febc
  15b368:	ff82d908 	.word	0xff82d908
  15b36c:	ff89f6c4 	.word	0xff89f6c4
  15b370:	ff815834 	.word	0xff815834
  15b374:	ffa77c38 	.word	0xffa77c38
  15b378:	ffa77be8 	.word	0xffa77be8
  15b37c:	ffae9970 	.word	0xffae9970
  15b380:	ffae9444 	.word	0xffae9444
  15b384:	ff9eb338 	.word	0xff9eb338
  15b388:	ffa97820 	.word	0xffa97820
  15b38c:	ff88ffa4 	.word	0xff88ffa4
  15b390:	ffae9438 	.word	0xffae9438
  15b394:	ff82d6d0 	.word	0xff82d6d0
  15b398:	ff89fd44 	.word	0xff89fd44
  15b39c:	ff812d1c 	.word	0xff812d1c
  15b3a0:	ff81aa34 	.word	0xff81aa34
  15b3a4:	ff81a920 	.word	0xff81a920
  15b3a8:	ff89f710 	.word	0xff89f710
  15b3ac:	ff812d68 	.word	0xff812d68
  15b3b0:	ff812cd0 	.word	0xff812cd0
  15b3b4:	ff812c94 	.word	0xff812c94
  15b3b8:	ff812d40 	.word	0xff812d40
  15b3bc:	ff832114 	.word	0xff832114
  15b3c0:	ff831f18 	.word	0xff831f18
  15b3c4:	003fb790 	.word	0x003fb790
  15b3c8:	ff81a7d0 	.word	0xff81a7d0
  15b3cc:	ff82bb4c 	.word	0xff82bb4c

0015b3d0 <_DeleteFile_Fut>:
  15b3d0:	e59ff024 	ldr	pc, [pc, #36]	; 15b3fc <_RefreshPhysicalScreen+0x4>

0015b3d4 <_kbd_pwr_off>:
  15b3d4:	e59ff024 	ldr	pc, [pc, #36]	; 15b400 <_RefreshPhysicalScreen+0x8>

0015b3d8 <_kbd_pwr_on>:
  15b3d8:	e59ff020 	ldr	pc, [pc, #32]	; 15b400 <_RefreshPhysicalScreen+0x8>

0015b3dc <_MakeDirectory_Fut>:
  15b3dc:	e59ff020 	ldr	pc, [pc, #32]	; 15b404 <_RefreshPhysicalScreen+0xc>

0015b3e0 <_GetBatteryTemperature>:
  15b3e0:	e59ff018 	ldr	pc, [pc, #24]	; 15b400 <_RefreshPhysicalScreen+0x8>

0015b3e4 <_Restart>:
  15b3e4:	e59ff01c 	ldr	pc, [pc, #28]	; 15b408 <_RefreshPhysicalScreen+0x10>

0015b3e8 <_TurnOffE1>:
  15b3e8:	e59ff01c 	ldr	pc, [pc, #28]	; 15b40c <_RefreshPhysicalScreen+0x14>

0015b3ec <_TurnOffMic>:
  15b3ec:	e59ff01c 	ldr	pc, [pc, #28]	; 15b410 <_RefreshPhysicalScreen+0x18>

0015b3f0 <_TurnOnMic>:
  15b3f0:	e59ff01c 	ldr	pc, [pc, #28]	; 15b414 <_RefreshPhysicalScreen+0x1c>

0015b3f4 <_SetZoomActuatorSpeedPercent>:
  15b3f4:	e59ff004 	ldr	pc, [pc, #4]	; 15b400 <_RefreshPhysicalScreen+0x8>

0015b3f8 <_RefreshPhysicalScreen>:
  15b3f8:	e59ff000 	ldr	pc, [pc, #0]	; 15b400 <_RefreshPhysicalScreen+0x8>
  15b3fc:	ff82cdf8 	.word	0xff82cdf8
  15b400:	ff810b7c 	.word	0xff810b7c
  15b404:	ff82d908 	.word	0xff82d908
  15b408:	ff831200 	.word	0xff831200
  15b40c:	ff830fa4 	.word	0xff830fa4
  15b410:	ff861f68 	.word	0xff861f68
  15b414:	ff861f3c 	.word	0xff861f3c

0015b418 <capt_seq_hook_raw_here>:
  15b418:	e92d5fff 	push	{r0, r1, r2, r3, r4, r5, r6, r7, r8, r9, sl, fp, ip, lr}
  15b41c:	e59f3080 	ldr	r3, [pc, #128]	; 15b4a4 <capt_seq_hook_raw_here+0x8c>
  15b420:	e5933004 	ldr	r3, [r3, #4]
  15b424:	e3530000 	cmp	r3, #0
  15b428:	0a000002 	beq	15b438 <capt_seq_hook_raw_here+0x20>
  15b42c:	eb004fa3 	bl	16f2c0 <__is_raw_enabled_from_arm>
  15b430:	e3500000 	cmp	r0, #0
  15b434:	1a000002 	bne	15b444 <capt_seq_hook_raw_here+0x2c>
  15b438:	eb004fa3 	bl	16f2cc <__remotecap_get_target_from_arm>
  15b43c:	e3500000 	cmp	r0, #0
  15b440:	0a00000c 	beq	15b478 <capt_seq_hook_raw_here+0x60>
  15b444:	eb004fa3 	bl	16f2d8 <__get_file_counter_from_arm>
  15b448:	e1a05000 	mov	r5, r0
  15b44c:	eb004ac3 	bl	16df60 <get_tick_count>
  15b450:	e28040c8 	add	r4, r0, #200	; 0xc8
  15b454:	ea000001 	b	15b460 <capt_seq_hook_raw_here+0x48>
  15b458:	e3a0000a 	mov	r0, #10
  15b45c:	ebffff18 	bl	15b0c4 <_SleepTask>
  15b460:	eb004f9c 	bl	16f2d8 <__get_file_counter_from_arm>
  15b464:	e1500005 	cmp	r0, r5
  15b468:	1a000002 	bne	15b478 <capt_seq_hook_raw_here+0x60>
  15b46c:	eb004abb 	bl	16df60 <get_tick_count>
  15b470:	e1500004 	cmp	r0, r4
  15b474:	bafffff7 	blt	15b458 <capt_seq_hook_raw_here+0x40>
  15b478:	e59f4028 	ldr	r4, [pc, #40]	; 15b4a8 <capt_seq_hook_raw_here+0x90>
  15b47c:	e3a03001 	mov	r3, #1
  15b480:	e5843000 	str	r3, [r4]
  15b484:	eb004f96 	bl	16f2e4 <__core_rawdata_available_from_arm>
  15b488:	ea000001 	b	15b494 <capt_seq_hook_raw_here+0x7c>
  15b48c:	e3a0000a 	mov	r0, #10
  15b490:	ebffff0b 	bl	15b0c4 <_SleepTask>
  15b494:	e5943000 	ldr	r3, [r4]
  15b498:	e3530002 	cmp	r3, #2
  15b49c:	1afffffa 	bne	15b48c <capt_seq_hook_raw_here+0x74>
  15b4a0:	e8bd9fff 	pop	{r0, r1, r2, r3, r4, r5, r6, r7, r8, r9, sl, fp, ip, pc}
  15b4a4:	001766e4 	.word	0x001766e4
  15b4a8:	0017c33c 	.word	0x0017c33c

0015b4ac <wait_until_remote_button_is_released>:
  15b4ac:	e92d5fff 	push	{r0, r1, r2, r3, r4, r5, r6, r7, r8, r9, sl, fp, ip, lr}
  15b4b0:	e10f0000 	mrs	r0, CPSR
  15b4b4:	e52d0004 	push	{r0}		; (str r0, [sp, #-4]!)
  15b4b8:	e59d0004 	ldr	r0, [sp, #4]
  15b4bc:	eb004f8b 	bl	16f2f0 <___wait_until_remote_button_is_released_from_arm>
  15b4c0:	e49d0004 	pop	{r0}		; (ldr r0, [sp], #4)
  15b4c4:	e12ff000 	msr	CPSR_fsxc, r0
  15b4c8:	e8bd5fff 	pop	{r0, r1, r2, r3, r4, r5, r6, r7, r8, r9, sl, fp, ip, lr}
  15b4cc:	e12fff1e 	bx	lr

0015b4d0 <hook_raw_save_complete>:
  15b4d0:	e3a02002 	mov	r2, #2
  15b4d4:	e59f3004 	ldr	r3, [pc, #4]	; 15b4e0 <hook_raw_save_complete+0x10>
  15b4d8:	e5832000 	str	r2, [r3]
  15b4dc:	e12fff1e 	bx	lr
  15b4e0:	0017c33c 	.word	0x0017c33c

0015b4e4 <capt_seq_hook_set_nr>:
  15b4e4:	e92d5fff 	push	{r0, r1, r2, r3, r4, r5, r6, r7, r8, r9, sl, fp, ip, lr}
  15b4e8:	e59f3034 	ldr	r3, [pc, #52]	; 15b524 <capt_seq_hook_set_nr+0x40>
  15b4ec:	e5933038 	ldr	r3, [r3, #56]	; 0x38
  15b4f0:	e3530001 	cmp	r3, #1
  15b4f4:	0a000001 	beq	15b500 <capt_seq_hook_set_nr+0x1c>
  15b4f8:	e3530002 	cmp	r3, #2
  15b4fc:	1a000001 	bne	15b508 <capt_seq_hook_set_nr+0x24>
  15b500:	e3a02a0b 	mov	r2, #45056	; 0xb000
  15b504:	e5823fd8 	str	r3, [r2, #4056]	; 0xfd8
  15b508:	e3a00000 	mov	r0, #0
  15b50c:	ebffff26 	bl	15b1ac <_time>
  15b510:	e59f4010 	ldr	r4, [pc, #16]	; 15b528 <capt_seq_hook_set_nr+0x44>
  15b514:	e58400e8 	str	r0, [r4, #232]	; 0xe8
  15b518:	eb004a90 	bl	16df60 <get_tick_count>
  15b51c:	e58400ec 	str	r0, [r4, #236]	; 0xec
  15b520:	e8bd9fff 	pop	{r0, r1, r2, r3, r4, r5, r6, r7, r8, r9, sl, fp, ip, pc}
  15b524:	001766e4 	.word	0x001766e4
  15b528:	0017805c 	.word	0x0017805c

0015b52c <capt_seq_task>:
  15b52c:	e92d40f8 	push	{r3, r4, r5, r6, r7, lr}
  15b530:	e59f5d7c 	ldr	r5, [pc, #3452]	; 15c2b4 <sub_FF8A40D4_my+0x48>
  15b534:	e59f7d7c 	ldr	r7, [pc, #3452]	; 15c2b8 <sub_FF8A40D4_my+0x4c>
  15b538:	e3a06000 	mov	r6, #0

0015b53c <loc_FF87D2B4>:
  15b53c:	e5970004 	ldr	r0, [r7, #4]
  15b540:	e3a02000 	mov	r2, #0
  15b544:	e1a0100d 	mov	r1, sp
  15b548:	ebfffd2b 	bl	15a9fc <sub_003F7418>
  15b54c:	e3100001 	tst	r0, #1
  15b550:	0a000004 	beq	15b568 <loc_FF87D2E0>
  15b554:	e59f1d60 	ldr	r1, [pc, #3424]	; 15c2bc <sub_FF8A40D4_my+0x50>
  15b558:	e59f0d60 	ldr	r0, [pc, #3424]	; 15c2c0 <sub_FF8A40D4_my+0x54>
  15b55c:	ebfffe92 	bl	15afac <_DebugAssert>
  15b560:	ebfffe98 	bl	15afc8 <_ExitTask>
  15b564:	e8bd80f8 	pop	{r3, r4, r5, r6, r7, pc}

0015b568 <loc_FF87D2E0>:
  15b568:	e59d0000 	ldr	r0, [sp]
  15b56c:	e5901000 	ldr	r1, [r0]
  15b570:	e3510022 	cmp	r1, #34	; 0x22
  15b574:	308ff101 	addcc	pc, pc, r1, lsl #2
  15b578:	ea000082 	b	15b788 <loc_FF87D4FC>
  15b57c:	ea000020 	b	15b604 <loc_FF87D37C>
  15b580:	ea000026 	b	15b620 <loc_FF87D394>
  15b584:	ea000028 	b	15b62c <loc_FF87D3A0>
  15b588:	ea00002c 	b	15b640 <loc_FF87D3B4>
  15b58c:	ea000029 	b	15b638 <loc_FF87D3AC>
  15b590:	ea00002d 	b	15b64c <loc_FF87D3C0>
  15b594:	ea00002e 	b	15b654 <loc_FF87D3C8>
  15b598:	ea00002f 	b	15b65c <loc_FF87D3D0>
  15b59c:	ea000031 	b	15b668 <loc_FF87D3DC>
  15b5a0:	ea00003b 	b	15b694 <loc_FF87D408>
  15b5a4:	ea000032 	b	15b674 <loc_FF87D3E8>
  15b5a8:	ea000034 	b	15b680 <loc_FF87D3F4>
  15b5ac:	ea000035 	b	15b688 <loc_FF87D3FC>
  15b5b0:	ea000039 	b	15b69c <loc_FF87D410>
  15b5b4:	ea00003a 	b	15b6a4 <loc_FF87D418>
  15b5b8:	ea00003b 	b	15b6ac <loc_FF87D420>
  15b5bc:	ea00003c 	b	15b6b4 <loc_FF87D428>
  15b5c0:	ea00003d 	b	15b6bc <loc_FF87D430>
  15b5c4:	ea00003f 	b	15b6c8 <loc_FF87D43C>
  15b5c8:	ea000040 	b	15b6d0 <loc_FF87D444>
  15b5cc:	ea000041 	b	15b6d8 <loc_FF87D44C>
  15b5d0:	ea000042 	b	15b6e0 <loc_FF87D454>
  15b5d4:	ea000043 	b	15b6e8 <loc_FF87D45C>
  15b5d8:	ea000044 	b	15b6f0 <loc_FF87D464>
  15b5dc:	ea000045 	b	15b6f8 <loc_FF87D46C>
  15b5e0:	ea000046 	b	15b700 <loc_FF87D474>
  15b5e4:	ea000047 	b	15b708 <loc_FF87D47C>
  15b5e8:	ea000048 	b	15b710 <loc_FF87D484>
  15b5ec:	ea00004a 	b	15b71c <loc_FF87D490>
  15b5f0:	ea00004b 	b	15b724 <loc_FF87D498>
  15b5f4:	ea00004d 	b	15b730 <loc_FF87D4A4>
  15b5f8:	ea00005a 	b	15b768 <loc_FF87D4DC>
  15b5fc:	ea00005c 	b	15b774 <loc_FF87D4E8>
  15b600:	ea000063 	b	15b794 <loc_FF87D508>

0015b604 <loc_FF87D37C>:
  15b604:	ebfffd41 	bl	15ab10 <sub_FF87DAD8>
  15b608:	eb004e8b 	bl	16f03c <shooting_expo_param_override>
  15b60c:	ebfffd37 	bl	15aaf0 <sub_FF87AF98>
  15b610:	e5950028 	ldr	r0, [r5, #40]	; 0x28
  15b614:	e3500000 	cmp	r0, #0
  15b618:	1b000069 	blne	15b7c4 <sub_FF975D00_my>
  15b61c:	ea00005c 	b	15b794 <loc_FF87D508>

0015b620 <loc_FF87D394>:
  15b620:	e5900010 	ldr	r0, [r0, #16]
  15b624:	eb00008a 	bl	15b854 <sub_FF975B7C_my>
  15b628:	ea000059 	b	15b794 <loc_FF87D508>

0015b62c <loc_FF87D3A0>:
  15b62c:	e3a00001 	mov	r0, #1
  15b630:	ebfffd39 	bl	15ab1c <sub_FF87DE00>
  15b634:	ea000056 	b	15b794 <loc_FF87D508>

0015b638 <loc_FF87D3AC>:
  15b638:	ebfffd30 	bl	15ab00 <sub_FF87D730>
  15b63c:	ea000000 	b	15b644 <loc_FF87D3B8>

0015b640 <loc_FF87D3B4>:
  15b640:	ebfffd2f 	bl	15ab04 <sub_FF87DAB4>

0015b644 <loc_FF87D3B8>:
  15b644:	e5856028 	str	r6, [r5, #40]	; 0x28
  15b648:	ea000051 	b	15b794 <loc_FF87D508>

0015b64c <loc_FF87D3C0>:
  15b64c:	ebfffd2d 	bl	15ab08 <sub_FF87DABC>
  15b650:	ea00004f 	b	15b794 <loc_FF87D508>

0015b654 <loc_FF87D3C8>:
  15b654:	ebfffd2e 	bl	15ab14 <sub_FF87DCD8>
  15b658:	ea000003 	b	15b66c <loc_FF87D3E0>

0015b65c <loc_FF87D3D0>:
  15b65c:	e5900010 	ldr	r0, [r0, #16]
  15b660:	ebfffd85 	bl	15ac7c <sub_FF975D90>
  15b664:	ea00004a 	b	15b794 <loc_FF87D508>

0015b668 <loc_FF87D3DC>:
  15b668:	ebfffd2a 	bl	15ab18 <sub_FF87DD6C>

0015b66c <loc_FF87D3E0>:
  15b66c:	ebfffd1f 	bl	15aaf0 <sub_FF87AF98>
  15b670:	ea000047 	b	15b794 <loc_FF87D508>

0015b674 <loc_FF87D3E8>:
  15b674:	e5950058 	ldr	r0, [r5, #88]	; 0x58
  15b678:	ebfffd2a 	bl	15ab28 <sub_FF87E310>
  15b67c:	ea000044 	b	15b794 <loc_FF87D508>

0015b680 <loc_FF87D3F4>:
  15b680:	ebfffd29 	bl	15ab2c <sub_FF87E71C>
  15b684:	ea000042 	b	15b794 <loc_FF87D508>

0015b688 <loc_FF87D3FC>:
  15b688:	e3a00000 	mov	r0, #0
  15b68c:	ebfffd27 	bl	15ab30 <sub_FF87E780>
  15b690:	ea00003f 	b	15b794 <loc_FF87D508>

0015b694 <loc_FF87D408>:
  15b694:	ebfffd1a 	bl	15ab04 <sub_FF87DAB4>
  15b698:	ea00003d 	b	15b794 <loc_FF87D508>

0015b69c <loc_FF87D410>:
  15b69c:	ebfffd68 	bl	15ac44 <sub_FF975094>
  15b6a0:	ea00003b 	b	15b794 <loc_FF87D508>

0015b6a4 <loc_FF87D418>:
  15b6a4:	ebfffd67 	bl	15ac48 <sub_FF9752CC>
  15b6a8:	ea000039 	b	15b794 <loc_FF87D508>

0015b6ac <loc_FF87D420>:
  15b6ac:	ebfffd66 	bl	15ac4c <sub_FF975388>
  15b6b0:	ea000037 	b	15b794 <loc_FF87D508>

0015b6b4 <loc_FF87D428>:
  15b6b4:	ebfffd65 	bl	15ac50 <sub_FF97545C>
  15b6b8:	ea000035 	b	15b794 <loc_FF87D508>

0015b6bc <loc_FF87D430>:
  15b6bc:	e3a00000 	mov	r0, #0
  15b6c0:	ebfffd65 	bl	15ac5c <sub_FF9756BC>
  15b6c4:	ea000032 	b	15b794 <loc_FF87D508>

0015b6c8 <loc_FF87D43C>:
  15b6c8:	ebfffd64 	bl	15ac60 <sub_FF975820>
  15b6cc:	ea000030 	b	15b794 <loc_FF87D508>

0015b6d0 <loc_FF87D444>:
  15b6d0:	ebfffd63 	bl	15ac64 <sub_FF9758B4>
  15b6d4:	ea00002e 	b	15b794 <loc_FF87D508>

0015b6d8 <loc_FF87D44C>:
  15b6d8:	ebfffd62 	bl	15ac68 <sub_FF97595C>
  15b6dc:	ea00002c 	b	15b794 <loc_FF87D508>

0015b6e0 <loc_FF87D454>:
  15b6e0:	ebfffd0e 	bl	15ab20 <sub_FF87DF68>
  15b6e4:	ea00002a 	b	15b794 <loc_FF87D508>

0015b6e8 <loc_FF87D45C>:
  15b6e8:	ebfffd0d 	bl	15ab24 <sub_FF87DF94>
  15b6ec:	ea000028 	b	15b794 <loc_FF87D508>

0015b6f0 <loc_FF87D464>:
  15b6f0:	ebfffd57 	bl	15ac54 <sub_FF97552C>
  15b6f4:	ea000026 	b	15b794 <loc_FF87D508>

0015b6f8 <loc_FF87D46C>:
  15b6f8:	ebfffd56 	bl	15ac58 <sub_FF97556C>
  15b6fc:	ea000024 	b	15b794 <loc_FF87D508>

0015b700 <loc_FF87D474>:
  15b700:	ebfffd0d 	bl	15ab3c <sub_FF880B88>
  15b704:	ea000022 	b	15b794 <loc_FF87D508>

0015b708 <loc_FF87D47C>:
  15b708:	ebfffd0c 	bl	15ab40 <sub_FF880C74>
  15b70c:	ea000020 	b	15b794 <loc_FF87D508>

0015b710 <loc_FF87D484>:
  15b710:	e590000c 	ldr	r0, [r0, #12]
  15b714:	ebfffd54 	bl	15ac6c <sub_FF975A6C>
  15b718:	ea00001d 	b	15b794 <loc_FF87D508>

0015b71c <loc_FF87D490>:
  15b71c:	ebfffd53 	bl	15ac70 <sub_FF975ADC>
  15b720:	ea00001b 	b	15b794 <loc_FF87D508>

0015b724 <loc_FF87D498>:
  15b724:	ebfffd07 	bl	15ab48 <sub_FF880E00>
  15b728:	ebfffd05 	bl	15ab44 <sub_FF880CCC>
  15b72c:	ea000018 	b	15b794 <loc_FF87D508>

0015b730 <loc_FF87D4A4>:
  15b730:	e3a00001 	mov	r0, #1
  15b734:	ebfffd52 	bl	15ac84 <sub_FF976504>
  15b738:	e3a00001 	mov	r0, #1
  15b73c:	ebfffd51 	bl	15ac88 <sub_FF97662C>
  15b740:	e59f0b7c 	ldr	r0, [pc, #2940]	; 15c2c4 <sub_FF8A40D4_my+0x58>
  15b744:	e1d008bc 	ldrh	r0, [r0, #140]	; 0x8c
  15b748:	e3500004 	cmp	r0, #4
  15b74c:	11d500b0 	ldrhne	r0, [r5]
  15b750:	12401902 	subne	r1, r0, #32768	; 0x8000
  15b754:	12511e23 	subsne	r1, r1, #560	; 0x230
  15b758:	1a00000d 	bne	15b794 <loc_FF87D508>
  15b75c:	ebfffcf7 	bl	15ab40 <sub_FF880C74>
  15b760:	ebfffcf9 	bl	15ab4c <sub_FF88114C>
  15b764:	ea00000a 	b	15b794 <loc_FF87D508>

0015b768 <loc_FF87D4DC>:
  15b768:	e3a02000 	mov	r2, #0
  15b76c:	e3a0100d 	mov	r1, #13
  15b770:	ea000001 	b	15b77c <loc_FF87D4F0>

0015b774 <loc_FF87D4E8>:
  15b774:	e3a02000 	mov	r2, #0
  15b778:	e3a0100c 	mov	r1, #12

0015b77c <loc_FF87D4F0>:
  15b77c:	e3a00000 	mov	r0, #0
  15b780:	ebfffcdc 	bl	15aaf8 <sub_FF87B80C>
  15b784:	ea000002 	b	15b794 <loc_FF87D508>

0015b788 <loc_FF87D4FC>:
  15b788:	e59f1b38 	ldr	r1, [pc, #2872]	; 15c2c8 <sub_FF8A40D4_my+0x5c>
  15b78c:	e59f0b2c 	ldr	r0, [pc, #2860]	; 15c2c0 <sub_FF8A40D4_my+0x54>
  15b790:	ebfffe05 	bl	15afac <_DebugAssert>

0015b794 <loc_FF87D508>:
  15b794:	e59d0000 	ldr	r0, [sp]
  15b798:	e5901004 	ldr	r1, [r0, #4]
  15b79c:	e5970000 	ldr	r0, [r7]
  15b7a0:	ebfffc9d 	bl	15aa1c <sub_003FAD9C>
  15b7a4:	e59d4000 	ldr	r4, [sp]
  15b7a8:	e5940008 	ldr	r0, [r4, #8]
  15b7ac:	e3500000 	cmp	r0, #0
  15b7b0:	059f1b14 	ldreq	r1, [pc, #2836]	; 15c2cc <sub_FF8A40D4_my+0x60>
  15b7b4:	059f0b04 	ldreq	r0, [pc, #2820]	; 15c2c0 <sub_FF8A40D4_my+0x54>
  15b7b8:	0bfffdfb 	bleq	15afac <_DebugAssert>
  15b7bc:	e5846008 	str	r6, [r4, #8]
  15b7c0:	eaffff5d 	b	15b53c <loc_FF87D2B4>

0015b7c4 <sub_FF975D00_my>:
  15b7c4:	e92d4070 	push	{r4, r5, r6, lr}
  15b7c8:	ebfffccb 	bl	15aafc <sub_FF87C990>
  15b7cc:	e1a04000 	mov	r4, r0
  15b7d0:	e3a0000c 	mov	r0, #12
  15b7d4:	ebfffcdd 	bl	15ab50 <sub_FF882730>
  15b7d8:	e59f6af0 	ldr	r6, [pc, #2800]	; 15c2d0 <sub_FF8A40D4_my+0x64>
  15b7dc:	e3100001 	tst	r0, #1
  15b7e0:	e3a05001 	mov	r5, #1
  15b7e4:	1a000018 	bne	15b84c <loc_FF975D88>
  15b7e8:	ebfffcc7 	bl	15ab0c <sub_FF87DAC4>
  15b7ec:	ebfffcd0 	bl	15ab34 <sub_FF87EA94>
  15b7f0:	e1a01004 	mov	r1, r4
  15b7f4:	ebfffccf 	bl	15ab38 <sub_FF87EAEC>
  15b7f8:	e59f0ad4 	ldr	r0, [pc, #2772]	; 15c2d4 <sub_FF8A40D4_my+0x68>
  15b7fc:	e3a02004 	mov	r2, #4
  15b800:	e2841030 	add	r1, r4, #48	; 0x30
  15b804:	ebfffe2c 	bl	15b0bc <_SetPropertyCase>
  15b808:	e3a02004 	mov	r2, #4
  15b80c:	e2841034 	add	r1, r4, #52	; 0x34
  15b810:	e3a0002c 	mov	r0, #44	; 0x2c
  15b814:	ebfffe28 	bl	15b0bc <_SetPropertyCase>
  15b818:	e3a02004 	mov	r2, #4
  15b81c:	e2841008 	add	r1, r4, #8
  15b820:	e3a0003f 	mov	r0, #63	; 0x3f
  15b824:	ebfffe24 	bl	15b0bc <_SetPropertyCase>
  15b828:	ebfffd17 	bl	15ac8c <sub_FF9767EC>
  15b82c:	e3e01a01 	mvn	r1, #4096	; 0x1000
  15b830:	ebfffc7a 	bl	15aa20 <sub_003FADD0>
  15b834:	e1a00004 	mov	r0, r4
  15b838:	ebfffd1f 	bl	15acbc <sub_FFA94EA0>
  15b83c:	e1a00004 	mov	r0, r4
  15b840:	eb000065 	bl	15b9dc <sub_FFA951C0_my>
  15b844:	e3100001 	tst	r0, #1
  15b848:	08bd8070 	popeq	{r4, r5, r6, pc}

0015b84c <loc_FF975D88>:
  15b84c:	e5865000 	str	r5, [r6]
  15b850:	e8bd8070 	pop	{r4, r5, r6, pc}

0015b854 <sub_FF975B7C_my>:
  15b854:	e92d407c 	push	{r2, r3, r4, r5, r6, lr}
  15b858:	e1a05000 	mov	r5, r0
  15b85c:	e59f0a6c 	ldr	r0, [pc, #2668]	; 15c2d0 <sub_FF8A40D4_my+0x64>
  15b860:	e59f6a4c 	ldr	r6, [pc, #2636]	; 15c2b4 <sub_FF8A40D4_my+0x48>
  15b864:	e5900000 	ldr	r0, [r0]
  15b868:	e3a04000 	mov	r4, #0
  15b86c:	e3500000 	cmp	r0, #0
  15b870:	13a0401d 	movne	r4, #29
  15b874:	1a000050 	bne	15b9bc <loc_FF975CE0>
  15b878:	e5960028 	ldr	r0, [r6, #40]	; 0x28
  15b87c:	e3500000 	cmp	r0, #0
  15b880:	1a00004d 	bne	15b9bc <loc_FF975CE0>
  15b884:	ebfffcaa 	bl	15ab34 <sub_FF87EA94>
  15b888:	e1a01005 	mov	r1, r5
  15b88c:	ebfffca9 	bl	15ab38 <sub_FF87EAEC>
  15b890:	e59f0a3c 	ldr	r0, [pc, #2620]	; 15c2d4 <sub_FF8A40D4_my+0x68>
  15b894:	e3a02004 	mov	r2, #4
  15b898:	e2851030 	add	r1, r5, #48	; 0x30
  15b89c:	ebfffe06 	bl	15b0bc <_SetPropertyCase>
  15b8a0:	e3a02004 	mov	r2, #4
  15b8a4:	e2851034 	add	r1, r5, #52	; 0x34
  15b8a8:	e3a0002c 	mov	r0, #44	; 0x2c
  15b8ac:	ebfffe02 	bl	15b0bc <_SetPropertyCase>
  15b8b0:	e3a0000c 	mov	r0, #12
  15b8b4:	ebfffca5 	bl	15ab50 <sub_FF882730>
  15b8b8:	e3100001 	tst	r0, #1
  15b8bc:	0a000001 	beq	15b8c8 <loc_FF975BF0>
  15b8c0:	ebfffc8b 	bl	15aaf4 <sub_FF87B678>
  15b8c4:	e3a04001 	mov	r4, #1

0015b8c8 <loc_FF975BF0>:
  15b8c8:	e3140001 	tst	r4, #1
  15b8cc:	1a00003a 	bne	15b9bc <loc_FF975CE0>
  15b8d0:	ebfffced 	bl	15ac8c <sub_FF9767EC>
  15b8d4:	e3e01a01 	mvn	r1, #4096	; 0x1000
  15b8d8:	ebfffc50 	bl	15aa20 <sub_003FADD0>
  15b8dc:	e1a00005 	mov	r0, r5
  15b8e0:	ebfffcf3 	bl	15acb4 <sub_FFA946A0>
  15b8e4:	e3100001 	tst	r0, #1
  15b8e8:	e1a04000 	mov	r4, r0
  15b8ec:	1a000032 	bne	15b9bc <loc_FF975CE0>
  15b8f0:	ebfffc85 	bl	15ab0c <sub_FF87DAC4>
  15b8f4:	e1a00005 	mov	r0, r5
  15b8f8:	ebfffcef 	bl	15acbc <sub_FFA94EA0>
  15b8fc:	e59600a0 	ldr	r0, [r6, #160]	; 0xa0
  15b900:	e3500000 	cmp	r0, #0
  15b904:	0a000023 	beq	15b998 <loc_FF975CC0>
  15b908:	e59f09b4 	ldr	r0, [pc, #2484]	; 15c2c4 <sub_FF8A40D4_my+0x58>
  15b90c:	e1d008ba 	ldrh	r0, [r0, #138]	; 0x8a
  15b910:	e3500003 	cmp	r0, #3
  15b914:	15950008 	ldrne	r0, [r5, #8]
  15b918:	13500001 	cmpne	r0, #1
  15b91c:	9a000006 	bls	15b93c <loc_FF975C64>
  15b920:	ebfffcd9 	bl	15ac8c <sub_FF9767EC>
  15b924:	e3a030db 	mov	r3, #219	; 0xdb
  15b928:	e58d3000 	str	r3, [sp]
  15b92c:	e59f29a4 	ldr	r2, [pc, #2468]	; 15c2d8 <sub_FF8A40D4_my+0x6c>
  15b930:	e59f39a4 	ldr	r3, [pc, #2468]	; 15c2dc <sub_FF8A40D4_my+0x70>
  15b934:	e3a01a01 	mov	r1, #4096	; 0x1000
  15b938:	ebfffc85 	bl	15ab54 <sub_FF882998>

0015b93c <loc_FF975C64>:
  15b93c:	e3a02004 	mov	r2, #4
  15b940:	e28d1004 	add	r1, sp, #4
  15b944:	e3a00d06 	mov	r0, #384	; 0x180
  15b948:	ebfffdb6 	bl	15b028 <_GetPropertyCase>
  15b94c:	e3100001 	tst	r0, #1
  15b950:	13a010df 	movne	r1, #223	; 0xdf
  15b954:	159f0980 	ldrne	r0, [pc, #2432]	; 15c2dc <sub_FF8A40D4_my+0x70>
  15b958:	1bfffd93 	blne	15afac <_DebugAssert>
  15b95c:	e59d0004 	ldr	r0, [sp, #4]
  15b960:	e3500000 	cmp	r0, #0
  15b964:	1a000003 	bne	15b978 <loc_FF975CA0>
  15b968:	ebfffcc7 	bl	15ac8c <sub_FF9767EC>
  15b96c:	e3a01a01 	mov	r1, #4096	; 0x1000
  15b970:	ebfffc29 	bl	15aa1c <sub_003FAD9C>
  15b974:	ea000007 	b	15b998 <loc_FF975CC0>

0015b978 <loc_FF975CA0>:
  15b978:	ebfffcc3 	bl	15ac8c <sub_FF9767EC>
  15b97c:	e3a01a01 	mov	r1, #4096	; 0x1000
  15b980:	ebfffc26 	bl	15aa20 <sub_003FADD0>
  15b984:	e59f2954 	ldr	r2, [pc, #2388]	; 15c2e0 <sub_FF8A40D4_my+0x74>
  15b988:	e59d0004 	ldr	r0, [sp, #4]
  15b98c:	e3a03a01 	mov	r3, #4096	; 0x1000
  15b990:	e1a01002 	mov	r1, r2
  15b994:	ebfffc49 	bl	15aac0 <sub_FF831BD8>

0015b998 <loc_FF975CC0>:
  15b998:	e59600ac 	ldr	r0, [r6, #172]	; 0xac
  15b99c:	e3500000 	cmp	r0, #0
  15b9a0:	e1a00005 	mov	r0, r5
  15b9a4:	0a000001 	beq	15b9b0 <loc_FF975CD8>
  15b9a8:	ebfffcc6 	bl	15acc8 <sub_FFA95570>
  15b9ac:	ea000000 	b	15b9b4 <loc_FF975CDC>

0015b9b0 <loc_FF975CD8>:
  15b9b0:	eb000009 	bl	15b9dc <sub_FFA951C0_my>

0015b9b4 <loc_FF975CDC>:
  15b9b4:	ebfffe97 	bl	15b418 <capt_seq_hook_raw_here>
  15b9b8:	e1a04000 	mov	r4, r0

0015b9bc <loc_FF975CE0>:
  15b9bc:	e1a02005 	mov	r2, r5
  15b9c0:	e3a01001 	mov	r1, #1
  15b9c4:	e1a00004 	mov	r0, r4
  15b9c8:	ebfffc4a 	bl	15aaf8 <sub_FF87B80C>
  15b9cc:	e3140001 	tst	r4, #1
  15b9d0:	03a00000 	moveq	r0, #0
  15b9d4:	05860028 	streq	r0, [r6, #40]	; 0x28
  15b9d8:	e8bd807c 	pop	{r2, r3, r4, r5, r6, pc}

0015b9dc <sub_FFA951C0_my>:
  15b9dc:	e92d41fc 	push	{r2, r3, r4, r5, r6, r7, r8, lr}
  15b9e0:	e1a04000 	mov	r4, r0
  15b9e4:	ebfffcb3 	bl	15acb8 <sub_FFA94E1C>
  15b9e8:	ebfffca4 	bl	15ac80 <sub_FF9762E0>
  15b9ec:	e59f88c0 	ldr	r8, [pc, #2240]	; 15c2b4 <sub_FF8A40D4_my+0x48>
  15b9f0:	e5980180 	ldr	r0, [r8, #384]	; 0x180
  15b9f4:	e2885c01 	add	r5, r8, #256	; 0x100
  15b9f8:	e3500002 	cmp	r0, #2
  15b9fc:	1a000005 	bne	15ba18 <loc_FFA951FC>
  15ba00:	e1d508ba 	ldrh	r0, [r5, #138]	; 0x8a
  15ba04:	e3500003 	cmp	r0, #3
  15ba08:	15940008 	ldrne	r0, [r4, #8]
  15ba0c:	13500001 	cmpne	r0, #1
  15ba10:	93a00004 	movls	r0, #4
  15ba14:	9bfffc7f 	blls	15ac18 <sub_FF8FA084>

0015ba18 <loc_FFA951FC>:
  15ba18:	e59f08c4 	ldr	r0, [pc, #2244]	; 15c2e4 <sub_FF8A40D4_my+0x78>
  15ba1c:	e3a02004 	mov	r2, #4
  15ba20:	e28d1004 	add	r1, sp, #4
  15ba24:	ebfffd7f 	bl	15b028 <_GetPropertyCase>
  15ba28:	e3100001 	tst	r0, #1
  15ba2c:	13a01e17 	movne	r1, #368	; 0x170
  15ba30:	159f08b0 	ldrne	r0, [pc, #2224]	; 15c2e8 <sub_FF8A40D4_my+0x7c>
  15ba34:	1bfffd5c 	blne	15afac <_DebugAssert>
  15ba38:	e59d0004 	ldr	r0, [sp, #4]
  15ba3c:	e2000cff 	and	r0, r0, #65280	; 0xff00
  15ba40:	e3500c06 	cmp	r0, #1536	; 0x600
  15ba44:	159f08a0 	ldrne	r0, [pc, #2208]	; 15c2ec <sub_FF8A40D4_my+0x80>
  15ba48:	059f08a0 	ldreq	r0, [pc, #2208]	; 15c2f0 <sub_FF8A40D4_my+0x84>
  15ba4c:	11a01004 	movne	r1, r4
  15ba50:	03a01000 	moveq	r1, #0
  15ba54:	ebfffc4a 	bl	15ab84 <sub_FF8AC910>
  15ba58:	e1a00004 	mov	r0, r4
  15ba5c:	eb000000 	bl	15ba64 <sub_FFA94F28_my>
  15ba60:	e59ff88c 	ldr	pc, [pc, #2188]	; 15c2f4 <sub_FF8A40D4_my+0x88>

0015ba64 <sub_FFA94F28_my>:
  15ba64:	e92d40fe 	push	{r1, r2, r3, r4, r5, r6, r7, lr}
  15ba68:	e59f5888 	ldr	r5, [pc, #2184]	; 15c2f8 <sub_FF8A40D4_my+0x8c>
  15ba6c:	e59f6840 	ldr	r6, [pc, #2112]	; 15c2b4 <sub_FF8A40D4_my+0x48>
  15ba70:	e1a04000 	mov	r4, r0
  15ba74:	e5953000 	ldr	r3, [r5]
  15ba78:	e1d520fc 	ldrsh	r2, [r5, #12]
  15ba7c:	e1d510fe 	ldrsh	r1, [r5, #14]
  15ba80:	e5960088 	ldr	r0, [r6, #136]	; 0x88
  15ba84:	ebfffc64 	bl	15ac1c <sub_FF933C78>
  15ba88:	e3a02002 	mov	r2, #2
  15ba8c:	e28d1008 	add	r1, sp, #8
  15ba90:	e3a000fa 	mov	r0, #250	; 0xfa
  15ba94:	ebfffd63 	bl	15b028 <_GetPropertyCase>
  15ba98:	e3100001 	tst	r0, #1
  15ba9c:	159f1858 	ldrne	r1, [pc, #2136]	; 15c2fc <sub_FF8A40D4_my+0x90>
  15baa0:	159f0858 	ldrne	r0, [pc, #2136]	; 15c300 <sub_FF8A40D4_my+0x94>
  15baa4:	1bfffd40 	blne	15afac <_DebugAssert>
  15baa8:	e1d500fc 	ldrsh	r0, [r5, #12]
  15baac:	e1dd10f8 	ldrsh	r1, [sp, #8]
  15bab0:	ebfffc57 	bl	15ac14 <sub_FF8F75C8>
  15bab4:	e59600e4 	ldr	r0, [r6, #228]	; 0xe4
  15bab8:	e3500000 	cmp	r0, #0
  15babc:	159f0800 	ldrne	r0, [pc, #2048]	; 15c2c4 <sub_FF8A40D4_my+0x58>
  15bac0:	11d008ba 	ldrhne	r0, [r0, #138]	; 0x8a
  15bac4:	13500003 	cmpne	r0, #3
  15bac8:	15940008 	ldrne	r0, [r4, #8]
  15bacc:	13500001 	cmpne	r0, #1
  15bad0:	8a000009 	bhi	15bafc <loc_FFA94FC0>
  15bad4:	ebfffd47 	bl	15aff8 <_GetCCDTemperature>
  15bad8:	e59f3824 	ldr	r3, [pc, #2084]	; 15c304 <sub_FF8A40D4_my+0x98>
  15badc:	e1c40ab0 	strh	r0, [r4, #160]	; 0xa0
  15bae0:	e2432004 	sub	r2, r3, #4
  15bae4:	e1cd20f0 	strd	r2, [sp]
  15bae8:	e1a01000 	mov	r1, r0
  15baec:	e1d520fc 	ldrsh	r2, [r5, #12]
  15baf0:	e1d605be 	ldrh	r0, [r6, #94]	; 0x5e
  15baf4:	e2833004 	add	r3, r3, #4
  15baf8:	ebfffc64 	bl	15ac90 <sub_FF9F42A8>

0015bafc <loc_FFA94FC0>:
  15bafc:	ebfffe6a 	bl	15b4ac <wait_until_remote_button_is_released>
  15bb00:	ebfffe77 	bl	15b4e4 <capt_seq_hook_set_nr>
  15bb04:	e1d40ab0 	ldrh	r0, [r4, #160]	; 0xa0
  15bb08:	e59ff7f8 	ldr	pc, [pc, #2040]	; 15c308 <sub_FF8A40D4_my+0x9c>

0015bb0c <exp_drv_task>:
  15bb0c:	e92d43f0 	push	{r4, r5, r6, r7, r8, r9, lr}
  15bb10:	e24dd02c 	sub	sp, sp, #44	; 0x2c
  15bb14:	e59f67f0 	ldr	r6, [pc, #2032]	; 15c30c <sub_FF8A40D4_my+0xa0>
  15bb18:	e59f77f0 	ldr	r7, [pc, #2032]	; 15c310 <sub_FF8A40D4_my+0xa4>
  15bb1c:	e59f47f0 	ldr	r4, [pc, #2032]	; 15c314 <sub_FF8A40D4_my+0xa8>
  15bb20:	e3a00000 	mov	r0, #0
  15bb24:	e28d501c 	add	r5, sp, #28
  15bb28:	e58d000c 	str	r0, [sp, #12]

0015bb2c <loc_FF8B9914>:
  15bb2c:	e5960020 	ldr	r0, [r6, #32]
  15bb30:	e3a02000 	mov	r2, #0
  15bb34:	e28d1028 	add	r1, sp, #40	; 0x28
  15bb38:	ebfffbaf 	bl	15a9fc <sub_003F7418>
  15bb3c:	e59d000c 	ldr	r0, [sp, #12]
  15bb40:	e3500001 	cmp	r0, #1
  15bb44:	1a00000b 	bne	15bb78 <loc_FF8B9960>
  15bb48:	e59d0028 	ldr	r0, [sp, #40]	; 0x28
  15bb4c:	e5900000 	ldr	r0, [r0]
  15bb50:	e3500014 	cmp	r0, #20
  15bb54:	13500015 	cmpne	r0, #21
  15bb58:	13500016 	cmpne	r0, #22
  15bb5c:	13500017 	cmpne	r0, #23
  15bb60:	0a00005c 	beq	15bcd8 <loc_FF8B9AC0>
  15bb64:	e350002a 	cmp	r0, #42	; 0x2a
  15bb68:	0a00003c 	beq	15bc60 <loc_FF8B9A48>
  15bb6c:	e28d100c 	add	r1, sp, #12
  15bb70:	e3a00000 	mov	r0, #0
  15bb74:	ebfffc1d 	bl	15abf0 <sub_FF8B98A4>

0015bb78 <loc_FF8B9960>:
  15bb78:	e59d0028 	ldr	r0, [sp, #40]	; 0x28
  15bb7c:	e5901000 	ldr	r1, [r0]
  15bb80:	e3510030 	cmp	r1, #48	; 0x30
  15bb84:	1a000006 	bne	15bba4 <loc_FF8B998C>
  15bb88:	ebfffc19 	bl	15abf4 <sub_FF8BAE28>
  15bb8c:	e596001c 	ldr	r0, [r6, #28]
  15bb90:	e3a01001 	mov	r1, #1
  15bb94:	ebfffba0 	bl	15aa1c <sub_003FAD9C>
  15bb98:	ebfffd0a 	bl	15afc8 <_ExitTask>
  15bb9c:	e28dd02c 	add	sp, sp, #44	; 0x2c
  15bba0:	e8bd83f0 	pop	{r4, r5, r6, r7, r8, r9, pc}

0015bba4 <loc_FF8B998C>:
  15bba4:	e351002f 	cmp	r1, #47	; 0x2f
  15bba8:	1a000004 	bne	15bbc0 <loc_FF8B99A8>
  15bbac:	e5b0208c 	ldr	r2, [r0, #140]!	; 0x8c
  15bbb0:	e5901004 	ldr	r1, [r0, #4]
  15bbb4:	e1a00001 	mov	r0, r1
  15bbb8:	e12fff32 	blx	r2
  15bbbc:	ea000174 	b	15c194 <loc_FF8B9F7C>

0015bbc0 <loc_FF8B99A8>:
  15bbc0:	e3510028 	cmp	r1, #40	; 0x28
  15bbc4:	1a000011 	bne	15bc10 <loc_FF8B99F8>
  15bbc8:	e596001c 	ldr	r0, [r6, #28]
  15bbcc:	e3a01080 	mov	r1, #128	; 0x80
  15bbd0:	ebfffb92 	bl	15aa20 <sub_003FADD0>
  15bbd4:	e59f073c 	ldr	r0, [pc, #1852]	; 15c318 <sub_FF8A40D4_my+0xac>
  15bbd8:	e3a01080 	mov	r1, #128	; 0x80
  15bbdc:	ebfffc0f 	bl	15ac20 <sub_FF96B694>
  15bbe0:	e596001c 	ldr	r0, [r6, #28]
  15bbe4:	e1a02007 	mov	r2, r7
  15bbe8:	e3a01080 	mov	r1, #128	; 0x80
  15bbec:	ebfffb89 	bl	15aa18 <sub_003FACDC>
  15bbf0:	e3100001 	tst	r0, #1
  15bbf4:	159f1720 	ldrne	r1, [pc, #1824]	; 15c31c <sub_FF8A40D4_my+0xb0>
  15bbf8:	1a000033 	bne	15bccc <loc_FF8B9AB4>

0015bbfc <loc_FF8B99E4>:
  15bbfc:	e59d1028 	ldr	r1, [sp, #40]	; 0x28
  15bc00:	e5910090 	ldr	r0, [r1, #144]	; 0x90
  15bc04:	e591108c 	ldr	r1, [r1, #140]	; 0x8c
  15bc08:	e12fff31 	blx	r1
  15bc0c:	ea000160 	b	15c194 <loc_FF8B9F7C>

0015bc10 <loc_FF8B99F8>:
  15bc10:	e3510029 	cmp	r1, #41	; 0x29
  15bc14:	1a00000f 	bne	15bc58 <loc_FF8B9A40>
  15bc18:	e28d100c 	add	r1, sp, #12
  15bc1c:	ebfffbf3 	bl	15abf0 <sub_FF8B98A4>
  15bc20:	e596001c 	ldr	r0, [r6, #28]
  15bc24:	e3a01c01 	mov	r1, #256	; 0x100
  15bc28:	ebfffb7c 	bl	15aa20 <sub_003FADD0>
  15bc2c:	e59f06ec 	ldr	r0, [pc, #1772]	; 15c320 <sub_FF8A40D4_my+0xb4>
  15bc30:	e3a01c01 	mov	r1, #256	; 0x100
  15bc34:	ebfffbfb 	bl	15ac28 <sub_FF96B834>
  15bc38:	e596001c 	ldr	r0, [r6, #28]
  15bc3c:	e1a02007 	mov	r2, r7
  15bc40:	e3a01c01 	mov	r1, #256	; 0x100
  15bc44:	ebfffb73 	bl	15aa18 <sub_003FACDC>
  15bc48:	e3100001 	tst	r0, #1
  15bc4c:	0affffea 	beq	15bbfc <loc_FF8B99E4>
  15bc50:	e59f16cc 	ldr	r1, [pc, #1740]	; 15c324 <sub_FF8A40D4_my+0xb8>
  15bc54:	ea00001c 	b	15bccc <loc_FF8B9AB4>

0015bc58 <loc_FF8B9A40>:
  15bc58:	e351002a 	cmp	r1, #42	; 0x2a
  15bc5c:	1a000003 	bne	15bc70 <loc_FF8B9A58>

0015bc60 <loc_FF8B9A48>:
  15bc60:	e59d0028 	ldr	r0, [sp, #40]	; 0x28
  15bc64:	e28d100c 	add	r1, sp, #12
  15bc68:	ebfffbe0 	bl	15abf0 <sub_FF8B98A4>
  15bc6c:	eaffffe2 	b	15bbfc <loc_FF8B99E4>

0015bc70 <loc_FF8B9A58>:
  15bc70:	e351002d 	cmp	r1, #45	; 0x2d
  15bc74:	1a000003 	bne	15bc88 <loc_FF8B9A70>
  15bc78:	ebfffbbe 	bl	15ab78 <sub_FF8A4388>
  15bc7c:	ebfffbbf 	bl	15ab80 <sub_FF8A5144>
  15bc80:	ebfffbbd 	bl	15ab7c <sub_FF8A4C58>
  15bc84:	eaffffdc 	b	15bbfc <loc_FF8B99E4>

0015bc88 <loc_FF8B9A70>:
  15bc88:	e351002e 	cmp	r1, #46	; 0x2e
  15bc8c:	1a000011 	bne	15bcd8 <loc_FF8B9AC0>
  15bc90:	e596001c 	ldr	r0, [r6, #28]
  15bc94:	e3a01004 	mov	r1, #4
  15bc98:	ebfffb60 	bl	15aa20 <sub_003FADD0>
  15bc9c:	e59f1684 	ldr	r1, [pc, #1668]	; 15c328 <sub_FF8A40D4_my+0xbc>
  15bca0:	e59f0684 	ldr	r0, [pc, #1668]	; 15c32c <sub_FF8A40D4_my+0xc0>
  15bca4:	e3a02004 	mov	r2, #4
  15bca8:	ebfffbaf 	bl	15ab6c <sub_FF8A3DD8>
  15bcac:	ebfffbaf 	bl	15ab70 <sub_FF8A4068>
  15bcb0:	e596001c 	ldr	r0, [r6, #28]
  15bcb4:	e1a02007 	mov	r2, r7
  15bcb8:	e3a01004 	mov	r1, #4
  15bcbc:	ebfffb54 	bl	15aa14 <sub_003FABF8>
  15bcc0:	e3100001 	tst	r0, #1
  15bcc4:	0affffcc 	beq	15bbfc <loc_FF8B99E4>
  15bcc8:	e59f1660 	ldr	r1, [pc, #1632]	; 15c330 <sub_FF8A40D4_my+0xc4>

0015bccc <loc_FF8B9AB4>:
  15bccc:	e59f0660 	ldr	r0, [pc, #1632]	; 15c334 <sub_FF8A40D4_my+0xc8>
  15bcd0:	ebfffcb5 	bl	15afac <_DebugAssert>
  15bcd4:	eaffffc8 	b	15bbfc <loc_FF8B99E4>

0015bcd8 <loc_FF8B9AC0>:
  15bcd8:	e59d0028 	ldr	r0, [sp, #40]	; 0x28
  15bcdc:	e3a08001 	mov	r8, #1
  15bce0:	e5901000 	ldr	r1, [r0]
  15bce4:	e3510012 	cmp	r1, #18
  15bce8:	13510013 	cmpne	r1, #19
  15bcec:	1a000013 	bne	15bd40 <loc_FF8B9B28>
  15bcf0:	e590107c 	ldr	r1, [r0, #124]	; 0x7c
  15bcf4:	e0811081 	add	r1, r1, r1, lsl #1
  15bcf8:	e0801101 	add	r1, r0, r1, lsl #2
  15bcfc:	e2411008 	sub	r1, r1, #8
  15bd00:	e891020c 	ldm	r1, {r2, r3, r9}
  15bd04:	e885020c 	stm	r5, {r2, r3, r9}
  15bd08:	ebfffbb4 	bl	15abe0 <sub_FF8B7CB4>
  15bd0c:	e59d0028 	ldr	r0, [sp, #40]	; 0x28
  15bd10:	e590107c 	ldr	r1, [r0, #124]	; 0x7c
  15bd14:	e590308c 	ldr	r3, [r0, #140]	; 0x8c
  15bd18:	e5902090 	ldr	r2, [r0, #144]	; 0x90
  15bd1c:	e2800004 	add	r0, r0, #4
  15bd20:	e12fff33 	blx	r3
  15bd24:	e59d0028 	ldr	r0, [sp, #40]	; 0x28
  15bd28:	ebfffbb7 	bl	15ac0c <sub_FF8BB248>
  15bd2c:	e59d0028 	ldr	r0, [sp, #40]	; 0x28
  15bd30:	e590107c 	ldr	r1, [r0, #124]	; 0x7c
  15bd34:	e5902098 	ldr	r2, [r0, #152]	; 0x98
  15bd38:	e5903094 	ldr	r3, [r0, #148]	; 0x94
  15bd3c:	ea0000c5 	b	15c058 <loc_FF8B9E40>

0015bd40 <loc_FF8B9B28>:
  15bd40:	e3510014 	cmp	r1, #20
  15bd44:	13510015 	cmpne	r1, #21
  15bd48:	13510016 	cmpne	r1, #22
  15bd4c:	13510017 	cmpne	r1, #23
  15bd50:	1a000028 	bne	15bdf8 <loc_FF8B9BE0>
  15bd54:	e28d300c 	add	r3, sp, #12
  15bd58:	e1a0200d 	mov	r2, sp
  15bd5c:	e28d101c 	add	r1, sp, #28
  15bd60:	ebfffb9f 	bl	15abe4 <sub_FF8B7F18>
  15bd64:	e3500001 	cmp	r0, #1
  15bd68:	e1a09000 	mov	r9, r0
  15bd6c:	13590005 	cmpne	r9, #5
  15bd70:	1a000007 	bne	15bd94 <loc_FF8B9B7C>
  15bd74:	e59d0028 	ldr	r0, [sp, #40]	; 0x28
  15bd78:	e1a02009 	mov	r2, r9
  15bd7c:	e5b0107c 	ldr	r1, [r0, #124]!	; 0x7c
  15bd80:	e5b0c010 	ldr	ip, [r0, #16]!
  15bd84:	e5903004 	ldr	r3, [r0, #4]
  15bd88:	e1a0000d 	mov	r0, sp
  15bd8c:	e12fff3c 	blx	ip
  15bd90:	ea00000d 	b	15bdcc <loc_FF8B9BB4>

0015bd94 <loc_FF8B9B7C>:
  15bd94:	e59d0028 	ldr	r0, [sp, #40]	; 0x28
  15bd98:	e3590002 	cmp	r9, #2
  15bd9c:	e5903090 	ldr	r3, [r0, #144]	; 0x90
  15bda0:	13590006 	cmpne	r9, #6
  15bda4:	1a00000d 	bne	15bde0 <loc_FF8B9BC8>
  15bda8:	e590c08c 	ldr	ip, [r0, #140]	; 0x8c
  15bdac:	e1a02009 	mov	r2, r9
  15bdb0:	e3a01001 	mov	r1, #1
  15bdb4:	e1a0000d 	mov	r0, sp
  15bdb8:	e12fff3c 	blx	ip
  15bdbc:	e59d0028 	ldr	r0, [sp, #40]	; 0x28
  15bdc0:	e1a0200d 	mov	r2, sp
  15bdc4:	e28d101c 	add	r1, sp, #28
  15bdc8:	ebfffb86 	bl	15abe8 <sub_FF8B9518>

0015bdcc <loc_FF8B9BB4>:
  15bdcc:	e59d0028 	ldr	r0, [sp, #40]	; 0x28
  15bdd0:	e59d200c 	ldr	r2, [sp, #12]
  15bdd4:	e1a01009 	mov	r1, r9
  15bdd8:	ebfffb83 	bl	15abec <sub_FF8B9844>
  15bddc:	ea00009f 	b	15c060 <loc_FF8B9E48>

0015bde0 <loc_FF8B9BC8>:
  15bde0:	e590107c 	ldr	r1, [r0, #124]	; 0x7c
  15bde4:	e590c08c 	ldr	ip, [r0, #140]	; 0x8c
  15bde8:	e1a02009 	mov	r2, r9
  15bdec:	e2800004 	add	r0, r0, #4
  15bdf0:	e12fff3c 	blx	ip
  15bdf4:	ea000099 	b	15c060 <loc_FF8B9E48>

0015bdf8 <loc_FF8B9BE0>:
  15bdf8:	e3510024 	cmp	r1, #36	; 0x24
  15bdfc:	13510025 	cmpne	r1, #37	; 0x25
  15be00:	1a00000f 	bne	15be44 <loc_FF8B9C2C>
  15be04:	e590107c 	ldr	r1, [r0, #124]	; 0x7c
  15be08:	e0811081 	add	r1, r1, r1, lsl #1
  15be0c:	e0801101 	add	r1, r0, r1, lsl #2
  15be10:	e2411008 	sub	r1, r1, #8
  15be14:	e891020c 	ldm	r1, {r2, r3, r9}
  15be18:	e885020c 	stm	r5, {r2, r3, r9}
  15be1c:	ebfffb68 	bl	15abc4 <sub_FF8B6C88>
  15be20:	e59d0028 	ldr	r0, [sp, #40]	; 0x28
  15be24:	e590107c 	ldr	r1, [r0, #124]	; 0x7c
  15be28:	e590308c 	ldr	r3, [r0, #140]	; 0x8c
  15be2c:	e5902090 	ldr	r2, [r0, #144]	; 0x90
  15be30:	e2800004 	add	r0, r0, #4
  15be34:	e12fff33 	blx	r3
  15be38:	e59d0028 	ldr	r0, [sp, #40]	; 0x28
  15be3c:	ebfffb61 	bl	15abc8 <sub_FF8B70CC>
  15be40:	ea000086 	b	15c060 <loc_FF8B9E48>

0015be44 <loc_FF8B9C2C>:
  15be44:	e2801004 	add	r1, r0, #4
  15be48:	e891020c 	ldm	r1, {r2, r3, r9}
  15be4c:	e885020c 	stm	r5, {r2, r3, r9}
  15be50:	e5901000 	ldr	r1, [r0]
  15be54:	e3510028 	cmp	r1, #40	; 0x28
  15be58:	308ff101 	addcc	pc, pc, r1, lsl #2
  15be5c:	ea000079 	b	15c048 <loc_FF8B9E30>
  15be60:	ea000026 	b	15bf00 <loc_FF8B9CE8>
  15be64:	ea000025 	b	15bf00 <loc_FF8B9CE8>
  15be68:	ea000026 	b	15bf08 <loc_FF8B9CF0>
  15be6c:	ea000027 	b	15bf10 <loc_FF8B9CF8>
  15be70:	ea000026 	b	15bf10 <loc_FF8B9CF8>
  15be74:	ea000025 	b	15bf10 <loc_FF8B9CF8>
  15be78:	ea000020 	b	15bf00 <loc_FF8B9CE8>
  15be7c:	ea000021 	b	15bf08 <loc_FF8B9CF0>
  15be80:	ea000022 	b	15bf10 <loc_FF8B9CF8>
  15be84:	ea000021 	b	15bf10 <loc_FF8B9CF8>
  15be88:	ea000026 	b	15bf28 <loc_FF8B9D10>
  15be8c:	ea000025 	b	15bf28 <loc_FF8B9D10>
  15be90:	ea000067 	b	15c034 <loc_FF8B9E1C>
  15be94:	ea000068 	b	15c03c <loc_FF8B9E24>
  15be98:	ea000067 	b	15c03c <loc_FF8B9E24>
  15be9c:	ea000066 	b	15c03c <loc_FF8B9E24>
  15bea0:	ea000065 	b	15c03c <loc_FF8B9E24>
  15bea4:	ea000066 	b	15c044 <loc_FF8B9E2C>
  15bea8:	ea000066 	b	15c048 <loc_FF8B9E30>
  15beac:	ea000065 	b	15c048 <loc_FF8B9E30>
  15beb0:	ea000064 	b	15c048 <loc_FF8B9E30>
  15beb4:	ea000063 	b	15c048 <loc_FF8B9E30>
  15beb8:	ea000062 	b	15c048 <loc_FF8B9E30>
  15bebc:	ea000061 	b	15c048 <loc_FF8B9E30>
  15bec0:	ea000014 	b	15bf18 <loc_FF8B9D00>
  15bec4:	ea000015 	b	15bf20 <loc_FF8B9D08>
  15bec8:	ea000014 	b	15bf20 <loc_FF8B9D08>
  15becc:	ea000013 	b	15bf20 <loc_FF8B9D08>
  15bed0:	ea000017 	b	15bf34 <loc_FF8B9D1C>
  15bed4:	ea000016 	b	15bf34 <loc_FF8B9D1C>
  15bed8:	ea000017 	b	15bf3c <loc_FF8B9D24>
  15bedc:	ea000024 	b	15bf74 <loc_FF8B9D5C>
  15bee0:	ea000031 	b	15bfac <loc_FF8B9D94>
  15bee4:	ea00003e 	b	15bfe4 <loc_FF8B9DCC>
  15bee8:	ea00004b 	b	15c01c <loc_FF8B9E04>
  15beec:	ea00004a 	b	15c01c <loc_FF8B9E04>
  15bef0:	ea000054 	b	15c048 <loc_FF8B9E30>
  15bef4:	ea000053 	b	15c048 <loc_FF8B9E30>
  15bef8:	ea000049 	b	15c024 <loc_FF8B9E0C>
  15befc:	ea00004a 	b	15c02c <loc_FF8B9E14>

0015bf00 <loc_FF8B9CE8>:
  15bf00:	ebfffb27 	bl	15aba4 <sub_FF8B557C>
  15bf04:	ea00004f 	b	15c048 <loc_FF8B9E30>

0015bf08 <loc_FF8B9CF0>:
  15bf08:	ebfffb26 	bl	15aba8 <sub_FF8B5838>
  15bf0c:	ea00004d 	b	15c048 <loc_FF8B9E30>

0015bf10 <loc_FF8B9CF8>:
  15bf10:	ebfffb25 	bl	15abac <sub_FF8B5A64>
  15bf14:	ea00004b 	b	15c048 <loc_FF8B9E30>

0015bf18 <loc_FF8B9D00>:
  15bf18:	ebfffb24 	bl	15abb0 <sub_FF8B5D90>
  15bf1c:	ea000049 	b	15c048 <loc_FF8B9E30>

0015bf20 <loc_FF8B9D08>:
  15bf20:	ebfffb23 	bl	15abb4 <sub_FF8B5FAC>
  15bf24:	ea000047 	b	15c048 <loc_FF8B9E30>

0015bf28 <loc_FF8B9D10>:
  15bf28:	eb00009c 	bl	15c1a0 <sub_FF8B636C_my>
  15bf2c:	e3a08000 	mov	r8, #0
  15bf30:	ea000044 	b	15c048 <loc_FF8B9E30>

0015bf34 <loc_FF8B9D1C>:
  15bf34:	ebfffb20 	bl	15abbc <sub_FF8B64B0>
  15bf38:	ea000042 	b	15c048 <loc_FF8B9E30>

0015bf3c <loc_FF8B9D24>:
  15bf3c:	e1d010b4 	ldrh	r1, [r0, #4]
  15bf40:	e1cd11bc 	strh	r1, [sp, #28]
  15bf44:	e1d410b2 	ldrh	r1, [r4, #2]
  15bf48:	e1cd11be 	strh	r1, [sp, #30]
  15bf4c:	e1d410b4 	ldrh	r1, [r4, #4]
  15bf50:	e1cd12b0 	strh	r1, [sp, #32]
  15bf54:	e1d410b6 	ldrh	r1, [r4, #6]
  15bf58:	e1cd12b2 	strh	r1, [sp, #34]	; 0x22
  15bf5c:	e1d010bc 	ldrh	r1, [r0, #12]
  15bf60:	e1cd12b4 	strh	r1, [sp, #36]	; 0x24
  15bf64:	e1d410ba 	ldrh	r1, [r4, #10]
  15bf68:	e1cd12b6 	strh	r1, [sp, #38]	; 0x26
  15bf6c:	ebfffb22 	bl	15abfc <sub_FF8BAECC>
  15bf70:	ea000034 	b	15c048 <loc_FF8B9E30>

0015bf74 <loc_FF8B9D5C>:
  15bf74:	e1d010b4 	ldrh	r1, [r0, #4]
  15bf78:	e1cd11bc 	strh	r1, [sp, #28]
  15bf7c:	e1d410b2 	ldrh	r1, [r4, #2]
  15bf80:	e1cd11be 	strh	r1, [sp, #30]
  15bf84:	e1d410b4 	ldrh	r1, [r4, #4]
  15bf88:	e1cd12b0 	strh	r1, [sp, #32]
  15bf8c:	e1d410b6 	ldrh	r1, [r4, #6]
  15bf90:	e1cd12b2 	strh	r1, [sp, #34]	; 0x22
  15bf94:	e1d410b8 	ldrh	r1, [r4, #8]
  15bf98:	e1cd12b4 	strh	r1, [sp, #36]	; 0x24
  15bf9c:	e1d410ba 	ldrh	r1, [r4, #10]
  15bfa0:	e1cd12b6 	strh	r1, [sp, #38]	; 0x26
  15bfa4:	ebfffb15 	bl	15ac00 <sub_FF8BB044>
  15bfa8:	ea000026 	b	15c048 <loc_FF8B9E30>

0015bfac <loc_FF8B9D94>:
  15bfac:	e1d410b0 	ldrh	r1, [r4]
  15bfb0:	e1cd11bc 	strh	r1, [sp, #28]
  15bfb4:	e1d010b6 	ldrh	r1, [r0, #6]
  15bfb8:	e1cd11be 	strh	r1, [sp, #30]
  15bfbc:	e1d410b4 	ldrh	r1, [r4, #4]
  15bfc0:	e1cd12b0 	strh	r1, [sp, #32]
  15bfc4:	e1d410b6 	ldrh	r1, [r4, #6]
  15bfc8:	e1cd12b2 	strh	r1, [sp, #34]	; 0x22
  15bfcc:	e1d410b8 	ldrh	r1, [r4, #8]
  15bfd0:	e1cd12b4 	strh	r1, [sp, #36]	; 0x24
  15bfd4:	e1d410ba 	ldrh	r1, [r4, #10]
  15bfd8:	e1cd12b6 	strh	r1, [sp, #38]	; 0x26
  15bfdc:	ebfffb08 	bl	15ac04 <sub_FF8BB0FC>
  15bfe0:	ea000018 	b	15c048 <loc_FF8B9E30>

0015bfe4 <loc_FF8B9DCC>:
  15bfe4:	e1d410b0 	ldrh	r1, [r4]
  15bfe8:	e1cd11bc 	strh	r1, [sp, #28]
  15bfec:	e1d410b2 	ldrh	r1, [r4, #2]
  15bff0:	e1cd11be 	strh	r1, [sp, #30]
  15bff4:	e1d410b4 	ldrh	r1, [r4, #4]
  15bff8:	e1cd12b0 	strh	r1, [sp, #32]
  15bffc:	e1d410b6 	ldrh	r1, [r4, #6]
  15c000:	e1cd12b2 	strh	r1, [sp, #34]	; 0x22
  15c004:	e1d010bc 	ldrh	r1, [r0, #12]
  15c008:	e1cd12b4 	strh	r1, [sp, #36]	; 0x24
  15c00c:	e1d410ba 	ldrh	r1, [r4, #10]
  15c010:	e1cd12b6 	strh	r1, [sp, #38]	; 0x26
  15c014:	ebfffafb 	bl	15ac08 <sub_FF8BB1A4>
  15c018:	ea00000a 	b	15c048 <loc_FF8B9E30>

0015c01c <loc_FF8B9E04>:
  15c01c:	ebfffae7 	bl	15abc0 <sub_FF8B6A38>
  15c020:	ea000008 	b	15c048 <loc_FF8B9E30>

0015c024 <loc_FF8B9E0C>:
  15c024:	ebfffae8 	bl	15abcc <sub_FF8B71D0>
  15c028:	ea000006 	b	15c048 <loc_FF8B9E30>

0015c02c <loc_FF8B9E14>:
  15c02c:	ebfffae7 	bl	15abd0 <sub_FF8B74B8>
  15c030:	ea000004 	b	15c048 <loc_FF8B9E30>

0015c034 <loc_FF8B9E1C>:
  15c034:	ebfffae6 	bl	15abd4 <sub_FF8B777C>
  15c038:	ea000002 	b	15c048 <loc_FF8B9E30>

0015c03c <loc_FF8B9E24>:
  15c03c:	ebfffae5 	bl	15abd8 <sub_FF8B793C>
  15c040:	ea000000 	b	15c048 <loc_FF8B9E30>

0015c044 <loc_FF8B9E2C>:
  15c044:	ebfffae4 	bl	15abdc <sub_FF8B7AA8>

0015c048 <loc_FF8B9E30>:
  15c048:	e59d0028 	ldr	r0, [sp, #40]	; 0x28
  15c04c:	e590107c 	ldr	r1, [r0, #124]	; 0x7c
  15c050:	e5902090 	ldr	r2, [r0, #144]	; 0x90
  15c054:	e590308c 	ldr	r3, [r0, #140]	; 0x8c

0015c058 <loc_FF8B9E40>:
  15c058:	e2800004 	add	r0, r0, #4
  15c05c:	e12fff33 	blx	r3

0015c060 <loc_FF8B9E48>:
  15c060:	e59d0028 	ldr	r0, [sp, #40]	; 0x28
  15c064:	e5900000 	ldr	r0, [r0]
  15c068:	e3500010 	cmp	r0, #16
  15c06c:	0a000009 	beq	15c098 <loc_FF8B9E80>
  15c070:	ca000004 	bgt	15c088 <loc_FF8B9E70>
  15c074:	e3500001 	cmp	r0, #1
  15c078:	13500004 	cmpne	r0, #4
  15c07c:	1350000e 	cmpne	r0, #14
  15c080:	1a000011 	bne	15c0cc <loc_FF8B9EB4>
  15c084:	ea000003 	b	15c098 <loc_FF8B9E80>

0015c088 <loc_FF8B9E70>:
  15c088:	e3500013 	cmp	r0, #19
  15c08c:	13500017 	cmpne	r0, #23
  15c090:	1350001a 	cmpne	r0, #26
  15c094:	1a00000c 	bne	15c0cc <loc_FF8B9EB4>

0015c098 <loc_FF8B9E80>:
  15c098:	e1d400f0 	ldrsh	r0, [r4]
  15c09c:	e3700b03 	cmn	r0, #3072	; 0xc00
  15c0a0:	11d410f8 	ldrshne	r1, [r4, #8]
  15c0a4:	13710b03 	cmnne	r1, #3072	; 0xc00
  15c0a8:	11cd01bc 	strhne	r0, [sp, #28]
  15c0ac:	11cd12b4 	strhne	r1, [sp, #36]	; 0x24
  15c0b0:	1a000005 	bne	15c0cc <loc_FF8B9EB4>
  15c0b4:	e28d0010 	add	r0, sp, #16
  15c0b8:	ebfffad4 	bl	15ac10 <sub_FF8BB45C>
  15c0bc:	e1dd01b0 	ldrh	r0, [sp, #16]
  15c0c0:	e1cd01bc 	strh	r0, [sp, #28]
  15c0c4:	e1dd01b8 	ldrh	r0, [sp, #24]
  15c0c8:	e1cd02b4 	strh	r0, [sp, #36]	; 0x24

0015c0cc <loc_FF8B9EB4>:
  15c0cc:	e59d0028 	ldr	r0, [sp, #40]	; 0x28
  15c0d0:	e3580001 	cmp	r8, #1
  15c0d4:	1a000010 	bne	15c11c <loc_FF8B9F04>
  15c0d8:	e590107c 	ldr	r1, [r0, #124]	; 0x7c
  15c0dc:	e3a0200c 	mov	r2, #12
  15c0e0:	e0811081 	add	r1, r1, r1, lsl #1
  15c0e4:	e0800101 	add	r0, r0, r1, lsl #2
  15c0e8:	e2408008 	sub	r8, r0, #8
  15c0ec:	e59f0220 	ldr	r0, [pc, #544]	; 15c314 <sub_FF8A40D4_my+0xa8>
  15c0f0:	e28d101c 	add	r1, sp, #28
  15c0f4:	ebfffa4a 	bl	15aa24 <sub_003FC550>
  15c0f8:	e59f0238 	ldr	r0, [pc, #568]	; 15c338 <sub_FF8A40D4_my+0xcc>
  15c0fc:	e3a0200c 	mov	r2, #12
  15c100:	e28d101c 	add	r1, sp, #28
  15c104:	ebfffa46 	bl	15aa24 <sub_003FC550>
  15c108:	e59f022c 	ldr	r0, [pc, #556]	; 15c33c <sub_FF8A40D4_my+0xd0>
  15c10c:	e3a0200c 	mov	r2, #12
  15c110:	e1a01008 	mov	r1, r8
  15c114:	ebfffa42 	bl	15aa24 <sub_003FC550>
  15c118:	ea00001d 	b	15c194 <loc_FF8B9F7C>

0015c11c <loc_FF8B9F04>:
  15c11c:	e5900000 	ldr	r0, [r0]
  15c120:	e3a03001 	mov	r3, #1
  15c124:	e350000b 	cmp	r0, #11
  15c128:	1a00000c 	bne	15c160 <loc_FF8B9F48>
  15c12c:	e3a02000 	mov	r2, #0
  15c130:	e1cd20f0 	strd	r2, [sp]
  15c134:	e1a02003 	mov	r2, r3
  15c138:	e1a01003 	mov	r1, r3
  15c13c:	e3a00000 	mov	r0, #0
  15c140:	ebfffa95 	bl	15ab9c <sub_FF8B535C>
  15c144:	e3a03001 	mov	r3, #1
  15c148:	e3a02000 	mov	r2, #0
  15c14c:	e1cd20f0 	strd	r2, [sp]
  15c150:	e1a02003 	mov	r2, r3
  15c154:	e1a01003 	mov	r1, r3
  15c158:	e3a00000 	mov	r0, #0
  15c15c:	ea00000b 	b	15c190 <loc_FF8B9F78>

0015c160 <loc_FF8B9F48>:
  15c160:	e3a02001 	mov	r2, #1
  15c164:	e1cd20f0 	strd	r2, [sp]
  15c168:	e1a03002 	mov	r3, r2
  15c16c:	e1a01002 	mov	r1, r2
  15c170:	e1a00002 	mov	r0, r2
  15c174:	ebfffa88 	bl	15ab9c <sub_FF8B535C>
  15c178:	e3a03001 	mov	r3, #1
  15c17c:	e1a02003 	mov	r2, r3
  15c180:	e1a01003 	mov	r1, r3
  15c184:	e1a00003 	mov	r0, r3
  15c188:	e58d3000 	str	r3, [sp]
  15c18c:	e58d3004 	str	r3, [sp, #4]

0015c190 <loc_FF8B9F78>:
  15c190:	ebfffa82 	bl	15aba0 <sub_FF8B54C8>

0015c194 <loc_FF8B9F7C>:
  15c194:	e59d0028 	ldr	r0, [sp, #40]	; 0x28
  15c198:	ebfffa95 	bl	15abf4 <sub_FF8BAE28>
  15c19c:	eafffe62 	b	15bb2c <loc_FF8B9914>

0015c1a0 <sub_FF8B636C_my>:
  15c1a0:	e92d41f0 	push	{r4, r5, r6, r7, r8, lr}
  15c1a4:	e59f7160 	ldr	r7, [pc, #352]	; 15c30c <sub_FF8A40D4_my+0xa0>
  15c1a8:	e1a04000 	mov	r4, r0
  15c1ac:	e597001c 	ldr	r0, [r7, #28]
  15c1b0:	e3a0103e 	mov	r1, #62	; 0x3e
  15c1b4:	ebfffa19 	bl	15aa20 <sub_003FADD0>
  15c1b8:	e3a02000 	mov	r2, #0
  15c1bc:	e1d400f4 	ldrsh	r0, [r4, #4]
  15c1c0:	e3a03001 	mov	r3, #1
  15c1c4:	e1a01002 	mov	r1, r2
  15c1c8:	ebfffa6e 	bl	15ab88 <sub_FF8B5000>
  15c1cc:	e1a06000 	mov	r6, r0
  15c1d0:	e1d400f6 	ldrsh	r0, [r4, #6]
  15c1d4:	ebfffa6c 	bl	15ab8c <sub_FF8B51BC>
  15c1d8:	e1d400f8 	ldrsh	r0, [r4, #8]
  15c1dc:	ebfffa6b 	bl	15ab90 <sub_FF8B5214>
  15c1e0:	e1d400fa 	ldrsh	r0, [r4, #10]
  15c1e4:	ebfffa6a 	bl	15ab94 <sub_FF8B526C>
  15c1e8:	e1d400fc 	ldrsh	r0, [r4, #12]
  15c1ec:	e3a01000 	mov	r1, #0
  15c1f0:	ebfffa68 	bl	15ab98 <sub_FF8B52C4>
  15c1f4:	e1a05000 	mov	r5, r0
  15c1f8:	e5940000 	ldr	r0, [r4]
  15c1fc:	e59f8138 	ldr	r8, [pc, #312]	; 15c33c <sub_FF8A40D4_my+0xd0>
  15c200:	e350000b 	cmp	r0, #11
  15c204:	03a06000 	moveq	r6, #0
  15c208:	01a05006 	moveq	r5, r6
  15c20c:	0a000009 	beq	15c238 <loc_FF8B6404>
  15c210:	e3560001 	cmp	r6, #1
  15c214:	1a000007 	bne	15c238 <loc_FF8B6404>
  15c218:	e1d400f4 	ldrsh	r0, [r4, #4]
  15c21c:	e59f111c 	ldr	r1, [pc, #284]	; 15c340 <sub_FF8A40D4_my+0xd4>
  15c220:	e3a02002 	mov	r2, #2
  15c224:	ebfffa7e 	bl	15ac24 <sub_FF96B718>
  15c228:	e1c400b4 	strh	r0, [r4, #4]
  15c22c:	e3a00000 	mov	r0, #0
  15c230:	e5870028 	str	r0, [r7, #40]	; 0x28
  15c234:	ea000001 	b	15c240 <loc_FF8B640C>

0015c238 <loc_FF8B6404>:
  15c238:	e1d800b0 	ldrh	r0, [r8]
  15c23c:	e1c400b4 	strh	r0, [r4, #4]

0015c240 <loc_FF8B640C>:
  15c240:	e3550001 	cmp	r5, #1
  15c244:	11d800b8 	ldrhne	r0, [r8, #8]
  15c248:	1a000003 	bne	15c25c <loc_FF8B6428>
  15c24c:	e1d400fc 	ldrsh	r0, [r4, #12]
  15c250:	e59f10ec 	ldr	r1, [pc, #236]	; 15c344 <sub_FF8A40D4_my+0xd8>
  15c254:	e3a02020 	mov	r2, #32
  15c258:	ebfffa66 	bl	15abf8 <sub_FF8BAE88>

0015c25c <loc_FF8B6428>:
  15c25c:	e1c400bc 	strh	r0, [r4, #12]
  15c260:	e1d400f6 	ldrsh	r0, [r4, #6]
  15c264:	eb000000 	bl	15c26c <sub_FF8A40D4_my>
  15c268:	e59ff0d8 	ldr	pc, [pc, #216]	; 15c348 <sub_FF8A40D4_my+0xdc>

0015c26c <sub_FF8A40D4_my>:
  15c26c:	e92d4070 	push	{r4, r5, r6, lr}
  15c270:	e59f50d4 	ldr	r5, [pc, #212]	; 15c34c <sub_FF8A40D4_my+0xe0>
  15c274:	e1a04000 	mov	r4, r0
  15c278:	e5950004 	ldr	r0, [r5, #4]
  15c27c:	e3500001 	cmp	r0, #1
  15c280:	13a01f55 	movne	r1, #340	; 0x154
  15c284:	159f00c4 	ldrne	r0, [pc, #196]	; 15c350 <sub_FF8A40D4_my+0xe4>
  15c288:	1bfffb47 	blne	15afac <_DebugAssert>
  15c28c:	e3740b03 	cmn	r4, #3072	; 0xc00
  15c290:	01d540f2 	ldrsheq	r4, [r5, #2]
  15c294:	e3740b03 	cmn	r4, #3072	; 0xc00
  15c298:	059f10b4 	ldreq	r1, [pc, #180]	; 15c354 <sub_FF8A40D4_my+0xe8>
  15c29c:	059f00ac 	ldreq	r0, [pc, #172]	; 15c350 <sub_FF8A40D4_my+0xe4>
  15c2a0:	e1c540b2 	strh	r4, [r5, #2]
  15c2a4:	0bfffb40 	bleq	15afac <_DebugAssert>
  15c2a8:	e1a00004 	mov	r0, r4
  15c2ac:	eb0049b4 	bl	16e984 <apex2us>
  15c2b0:	e59ff0a0 	ldr	pc, [pc, #160]	; 15c358 <sub_FF8A40D4_my+0xec>
  15c2b4:	00038a8c 	.word	0x00038a8c
  15c2b8:	000030ac 	.word	0x000030ac
  15c2bc:	00000475 	.word	0x00000475
  15c2c0:	ff87cd7c 	.word	0xff87cd7c
  15c2c4:	00038b8c 	.word	0x00038b8c
  15c2c8:	000005da 	.word	0x000005da
  15c2cc:	00000116 	.word	0x00000116
  15c2d0:	00006e3c 	.word	0x00006e3c
  15c2d4:	0000010e 	.word	0x0000010e
  15c2d8:	00003a98 	.word	0x00003a98
  15c2dc:	ff975e24 	.word	0xff975e24
  15c2e0:	ff975b68 	.word	0xff975b68
  15c2e4:	0000012f 	.word	0x0000012f
  15c2e8:	ffa95424 	.word	0xffa95424
  15c2ec:	ffa94b54 	.word	0xffa94b54
  15c2f0:	ffa95188 	.word	0xffa95188
  15c2f4:	ffa95244 	.word	0xffa95244
  15c2f8:	00038c5c 	.word	0x00038c5c
  15c2fc:	000002e5 	.word	0x000002e5
  15c300:	ffa94df4 	.word	0xffa94df4
  15c304:	0000bfd4 	.word	0x0000bfd4
  15c308:	ffa94fc4 	.word	0xffa94fc4
  15c30c:	00003f90 	.word	0x00003f90
  15c310:	00000bb8 	.word	0x00000bb8
  15c314:	00057e60 	.word	0x00057e60
  15c318:	ff8b4f68 	.word	0xff8b4f68
  15c31c:	00001664 	.word	0x00001664
  15c320:	ff8b4f78 	.word	0xff8b4f78
  15c324:	0000166e 	.word	0x0000166e
  15c328:	ff8b4f98 	.word	0xff8b4f98
  15c32c:	fffff400 	.word	0xfffff400
  15c330:	00001696 	.word	0x00001696
  15c334:	ff8b56fc 	.word	0xff8b56fc
  15c338:	00057e6c 	.word	0x00057e6c
  15c33c:	00057e78 	.word	0x00057e78
  15c340:	ff8b4f58 	.word	0xff8b4f58
  15c344:	ff8b4fdc 	.word	0xff8b4fdc
  15c348:	ff8b6434 	.word	0xff8b6434
  15c34c:	00003bd4 	.word	0x00003bd4
  15c350:	ff8a3f0c 	.word	0xff8a3f0c
  15c354:	0000015a 	.word	0x0000015a
  15c358:	ff8a4118 	.word	0xff8a4118

0015c35c <change_video_tables>:
  15c35c:	e12fff1e 	bx	lr

0015c360 <set_quality>:
  15c360:	e92d4010 	push	{r4, lr}
  15c364:	e1a04000 	mov	r4, r0
  15c368:	e59f3030 	ldr	r3, [pc, #48]	; 15c3a0 <set_quality+0x40>
  15c36c:	e5932570 	ldr	r2, [r3, #1392]	; 0x570
  15c370:	e3520000 	cmp	r2, #0
  15c374:	0a000007 	beq	15c398 <set_quality+0x38>
  15c378:	e5933574 	ldr	r3, [r3, #1396]	; 0x574
  15c37c:	e2433001 	sub	r3, r3, #1
  15c380:	e3a0001d 	mov	r0, #29
  15c384:	e0000093 	mul	r0, r3, r0
  15c388:	e3e01061 	mvn	r1, #97	; 0x61
  15c38c:	eb0040aa 	bl	16c63c <__aeabi_idiv>
  15c390:	e280000c 	add	r0, r0, #12
  15c394:	e5840000 	str	r0, [r4]
  15c398:	e8bd4010 	pop	{r4, lr}
  15c39c:	e12fff1e 	bx	lr
  15c3a0:	001766e4 	.word	0x001766e4

0015c3a4 <movie_record_task>:
  15c3a4:	e92d47fc 	push	{r2, r3, r4, r5, r6, r7, r8, r9, sl, lr}
  15c3a8:	e59f8190 	ldr	r8, [pc, #400]	; 15c540 <loc_FF971734+0x20>
  15c3ac:	e59f4190 	ldr	r4, [pc, #400]	; 15c544 <loc_FF971734+0x24>
  15c3b0:	e59fa190 	ldr	sl, [pc, #400]	; 15c548 <loc_FF971734+0x28>
  15c3b4:	e3e07000 	mvn	r7, #0
  15c3b8:	e3a05001 	mov	r5, #1
  15c3bc:	e3a06000 	mov	r6, #0
  15c3c0:	e2879e67 	add	r9, r7, #1648	; 0x670

0015c3c4 <loc_FF9715E8>:
  15c3c4:	e5940028 	ldr	r0, [r4, #40]	; 0x28
  15c3c8:	e3a02000 	mov	r2, #0
  15c3cc:	e28d1004 	add	r1, sp, #4
  15c3d0:	ebfff989 	bl	15a9fc <sub_003F7418>
  15c3d4:	e5940030 	ldr	r0, [r4, #48]	; 0x30
  15c3d8:	e3500000 	cmp	r0, #0
  15c3dc:	15940010 	ldrne	r0, [r4, #16]
  15c3e0:	13500002 	cmpne	r0, #2
  15c3e4:	15940044 	ldrne	r0, [r4, #68]	; 0x44
  15c3e8:	13500006 	cmpne	r0, #6
  15c3ec:	1a00004b 	bne	15c520 <loc_FF971734>
  15c3f0:	e59d0004 	ldr	r0, [sp, #4]
  15c3f4:	e5901000 	ldr	r1, [r0]
  15c3f8:	e2411002 	sub	r1, r1, #2
  15c3fc:	e351000d 	cmp	r1, #13
  15c400:	308ff101 	addcc	pc, pc, r1, lsl #2
  15c404:	ea000045 	b	15c520 <loc_FF971734>
  15c408:	ea00001f 	b	15c48c <loc_FF9716B0>
  15c40c:	ea00002b 	b	15c4c0 <loc_FF9716D4>
  15c410:	ea00002e 	b	15c4d0 <loc_FF9716E4>
  15c414:	ea00002f 	b	15c4d8 <loc_FF9716EC>
  15c418:	ea00001e 	b	15c498 <loc_FF9716B8>
  15c41c:	ea00002f 	b	15c4e0 <loc_FF9716F4>
  15c420:	ea000039 	b	15c50c <loc_FF971720>
  15c424:	ea00003a 	b	15c514 <loc_FF971728>
  15c428:	ea000020 	b	15c4b0 <loc_FF9716C4>
  15c42c:	ea00003b 	b	15c520 <loc_FF971734>
  15c430:	ea000039 	b	15c51c <loc_FF971730>
  15c434:	ea00000b 	b	15c468 <loc_FF97168C>
  15c438:	eaffffff 	b	15c43c <loc_FF971660>

0015c43c <loc_FF971660>:
  15c43c:	e5846040 	str	r6, [r4, #64]	; 0x40
  15c440:	e5846034 	str	r6, [r4, #52]	; 0x34
  15c444:	e58470c4 	str	r7, [r4, #196]	; 0xc4
  15c448:	e1c460b6 	strh	r6, [r4, #6]
  15c44c:	e58480ac 	str	r8, [r4, #172]	; 0xac
  15c450:	e5940010 	ldr	r0, [r4, #16]
  15c454:	e2800001 	add	r0, r0, #1
  15c458:	e5840010 	str	r0, [r4, #16]
  15c45c:	e3a00006 	mov	r0, #6
  15c460:	e5840044 	str	r0, [r4, #68]	; 0x44
  15c464:	ea000006 	b	15c484 <loc_FF9716A8>

0015c468 <loc_FF97168C>:
  15c468:	e5846040 	str	r6, [r4, #64]	; 0x40
  15c46c:	e58470c4 	str	r7, [r4, #196]	; 0xc4
  15c470:	e58480ac 	str	r8, [r4, #172]	; 0xac
  15c474:	e5940010 	ldr	r0, [r4, #16]
  15c478:	e2800001 	add	r0, r0, #1
  15c47c:	e5840010 	str	r0, [r4, #16]
  15c480:	e5845044 	str	r5, [r4, #68]	; 0x44

0015c484 <loc_FF9716A8>:
  15c484:	e5845008 	str	r5, [r4, #8]
  15c488:	ea000024 	b	15c520 <loc_FF971734>

0015c48c <loc_FF9716B0>:
  15c48c:	eb004b9a 	bl	16f2fc <__unlock_optical_zoom_from_arm>
  15c490:	ebfff9e8 	bl	15ac38 <sub_FF970F94>
  15c494:	ea000021 	b	15c520 <loc_FF971734>

0015c498 <loc_FF9716B8>:
  15c498:	e59410ac 	ldr	r1, [r4, #172]	; 0xac
  15c49c:	e12fff31 	blx	r1
  15c4a0:	e59f00a4 	ldr	r0, [pc, #164]	; 15c54c <loc_FF971734+0x2c>
  15c4a4:	ebffffad 	bl	15c360 <set_quality>
  15c4a8:	eb00490d 	bl	16e8e4 <mute_on_zoom>
  15c4ac:	ea00001b 	b	15c520 <loc_FF971734>

0015c4b0 <loc_FF9716C4>:
  15c4b0:	e5901018 	ldr	r1, [r0, #24]
  15c4b4:	e5900004 	ldr	r0, [r0, #4]
  15c4b8:	ebfff9fc 	bl	15acb0 <sub_FFA90F1C>
  15c4bc:	ea000017 	b	15c520 <loc_FF971734>

0015c4c0 <loc_FF9716D4>:
  15c4c0:	e5940044 	ldr	r0, [r4, #68]	; 0x44
  15c4c4:	e3500005 	cmp	r0, #5
  15c4c8:	15845034 	strne	r5, [r4, #52]	; 0x34
  15c4cc:	ea000013 	b	15c520 <loc_FF971734>

0015c4d0 <loc_FF9716E4>:
  15c4d0:	ebfff9d7 	bl	15ac34 <sub_FF970C10>
  15c4d4:	ea000011 	b	15c520 <loc_FF971734>

0015c4d8 <loc_FF9716EC>:
  15c4d8:	ebfff9d4 	bl	15ac30 <sub_FF970AE0>
  15c4dc:	ea00000f 	b	15c520 <loc_FF971734>

0015c4e0 <loc_FF9716F4>:
  15c4e0:	e59f0068 	ldr	r0, [pc, #104]	; 15c550 <loc_FF971734+0x30>
  15c4e4:	e5900008 	ldr	r0, [r0, #8]
  15c4e8:	e3500000 	cmp	r0, #0
  15c4ec:	159f2060 	ldrne	r2, [pc, #96]	; 15c554 <loc_FF971734+0x34>
  15c4f0:	159f0060 	ldrne	r0, [pc, #96]	; 15c558 <loc_FF971734+0x38>
  15c4f4:	13a03000 	movne	r3, #0
  15c4f8:	11a01003 	movne	r1, r3
  15c4fc:	1bfff974 	blne	15aad4 <sub_FF86264C>
  15c500:	e3a00003 	mov	r0, #3
  15c504:	e5840044 	str	r0, [r4, #68]	; 0x44
  15c508:	ea000004 	b	15c520 <loc_FF971734>

0015c50c <loc_FF971720>:
  15c50c:	ebfff9c6 	bl	15ac2c <sub_FF9709C0>
  15c510:	ea000002 	b	15c520 <loc_FF971734>

0015c514 <loc_FF971728>:
  15c514:	ebfff9c9 	bl	15ac40 <sub_FF97203C>
  15c518:	ea000000 	b	15c520 <loc_FF971734>

0015c51c <loc_FF971730>:
  15c51c:	ebfff9c6 	bl	15ac3c <sub_FF971F64>

0015c520 <loc_FF971734>:
  15c520:	e59d1004 	ldr	r1, [sp, #4]
  15c524:	e59f3030 	ldr	r3, [pc, #48]	; 15c55c <loc_FF971734+0x3c>
  15c528:	e5816000 	str	r6, [r1]
  15c52c:	e58d9000 	str	r9, [sp]
  15c530:	e594002c 	ldr	r0, [r4, #44]	; 0x2c
  15c534:	e1a0200a 	mov	r2, sl
  15c538:	ebfff934 	bl	15aa10 <sub_003F7D90>
  15c53c:	eaffffa0 	b	15c3c4 <loc_FF9715E8>
  15c540:	ff971244 	.word	0xff971244
  15c544:	000069a0 	.word	0x000069a0
  15c548:	00002710 	.word	0x00002710
  15c54c:	00006a14 	.word	0x00006a14
  15c550:	000c1c40 	.word	0x000c1c40
  15c554:	ff970a34 	.word	0xff970a34
  15c558:	ff970a88 	.word	0xff970a88
  15c55c:	ff97073c 	.word	0xff97073c

0015c560 <filewrite_get_jpeg_chunk>:
  15c560:	e92d45f0 	push	{r4, r5, r6, r7, r8, sl, lr}
  15c564:	e1a04000 	mov	r4, r0
  15c568:	e1a05001 	mov	r5, r1
  15c56c:	e1a06002 	mov	r6, r2
  15c570:	e1a08003 	mov	r8, r3
  15c574:	e59fa0cc 	ldr	sl, [pc, #204]	; 15c648 <filewrite_get_jpeg_chunk+0xe8>
  15c578:	e59a3000 	ldr	r3, [sl]
  15c57c:	e3530000 	cmp	r3, #0
  15c580:	1a00000c 	bne	15c5b8 <filewrite_get_jpeg_chunk+0x58>
  15c584:	e3a07032 	mov	r7, #50	; 0x32
  15c588:	e3a0000a 	mov	r0, #10
  15c58c:	ebfffacc 	bl	15b0c4 <_SleepTask>
  15c590:	e59a3000 	ldr	r3, [sl]
  15c594:	e3530000 	cmp	r3, #0
  15c598:	1a000006 	bne	15c5b8 <filewrite_get_jpeg_chunk+0x58>
  15c59c:	e2577001 	subs	r7, r7, #1
  15c5a0:	1afffff8 	bne	15c588 <filewrite_get_jpeg_chunk+0x28>
  15c5a4:	e5847000 	str	r7, [r4]
  15c5a8:	e5857000 	str	r7, [r5]
  15c5ac:	e3e03000 	mvn	r3, #0
  15c5b0:	e5883000 	str	r3, [r8]
  15c5b4:	ea000020 	b	15c63c <filewrite_get_jpeg_chunk+0xdc>
  15c5b8:	e3560000 	cmp	r6, #0
  15c5bc:	e59f3084 	ldr	r3, [pc, #132]	; 15c648 <filewrite_get_jpeg_chunk+0xe8>
  15c5c0:	05932008 	ldreq	r2, [r3, #8]
  15c5c4:	05832004 	streq	r2, [r3, #4]
  15c5c8:	e5931000 	ldr	r1, [r3]
  15c5cc:	e593200c 	ldr	r2, [r3, #12]
  15c5d0:	e0810182 	add	r0, r1, r2, lsl #3
  15c5d4:	e791c182 	ldr	ip, [r1, r2, lsl #3]
  15c5d8:	e584c000 	str	ip, [r4]
  15c5dc:	e5900004 	ldr	r0, [r0, #4]
  15c5e0:	e5850000 	str	r0, [r5]
  15c5e4:	e593c004 	ldr	ip, [r3, #4]
  15c5e8:	e060000c 	rsb	r0, r0, ip
  15c5ec:	e5830004 	str	r0, [r3, #4]
  15c5f0:	e3520000 	cmp	r2, #0
  15c5f4:	059f304c 	ldreq	r3, [pc, #76]	; 15c648 <filewrite_get_jpeg_chunk+0xe8>
  15c5f8:	05933010 	ldreq	r3, [r3, #16]
  15c5fc:	13e03000 	mvnne	r3, #0
  15c600:	e5883000 	str	r3, [r8]
  15c604:	e2822001 	add	r2, r2, #1
  15c608:	e59f3038 	ldr	r3, [pc, #56]	; 15c648 <filewrite_get_jpeg_chunk+0xe8>
  15c60c:	e583200c 	str	r2, [r3, #12]
  15c610:	e3500000 	cmp	r0, #0
  15c614:	da000008 	ble	15c63c <filewrite_get_jpeg_chunk+0xdc>
  15c618:	e3520006 	cmp	r2, #6
  15c61c:	c3a00003 	movgt	r0, #3
  15c620:	ca000006 	bgt	15c640 <filewrite_get_jpeg_chunk+0xe0>
  15c624:	e0812182 	add	r2, r1, r2, lsl #3
  15c628:	e5920004 	ldr	r0, [r2, #4]
  15c62c:	e3500000 	cmp	r0, #0
  15c630:	13a00001 	movne	r0, #1
  15c634:	03a00003 	moveq	r0, #3
  15c638:	ea000000 	b	15c640 <filewrite_get_jpeg_chunk+0xe0>
  15c63c:	e3a00002 	mov	r0, #2
  15c640:	e8bd45f0 	pop	{r4, r5, r6, r7, r8, sl, lr}
  15c644:	e12fff1e 	bx	lr
  15c648:	0017c340 	.word	0x0017c340

0015c64c <filewrite_set_discard_jpeg>:
  15c64c:	e59f3004 	ldr	r3, [pc, #4]	; 15c658 <filewrite_set_discard_jpeg+0xc>
  15c650:	e5830014 	str	r0, [r3, #20]
  15c654:	e12fff1e 	bx	lr
  15c658:	0017c340 	.word	0x0017c340

0015c65c <filewrite_main_hook>:
  15c65c:	e92d4010 	push	{r4, lr}
  15c660:	e59f404c 	ldr	r4, [pc, #76]	; 15c6b4 <filewrite_main_hook+0x58>
  15c664:	e3a03000 	mov	r3, #0
  15c668:	e584300c 	str	r3, [r4, #12]
  15c66c:	e590304c 	ldr	r3, [r0, #76]	; 0x4c
  15c670:	e3130040 	tst	r3, #64	; 0x40
  15c674:	1a000003 	bne	15c688 <filewrite_main_hook+0x2c>
  15c678:	e5903004 	ldr	r3, [r0, #4]
  15c67c:	e3530000 	cmp	r3, #0
  15c680:	03e03000 	mvneq	r3, #0
  15c684:	0a000000 	beq	15c68c <filewrite_main_hook+0x30>
  15c688:	e5903004 	ldr	r3, [r0, #4]
  15c68c:	e5843010 	str	r3, [r4, #16]
  15c690:	e5903008 	ldr	r3, [r0, #8]
  15c694:	e5843008 	str	r3, [r4, #8]
  15c698:	e2800014 	add	r0, r0, #20
  15c69c:	e5840000 	str	r0, [r4]
  15c6a0:	eb004b18 	bl	16f308 <__remotecap_jpeg_available_from_arm>
  15c6a4:	e3a03000 	mov	r3, #0
  15c6a8:	e5843000 	str	r3, [r4]
  15c6ac:	e8bd4010 	pop	{r4, lr}
  15c6b0:	e12fff1e 	bx	lr
  15c6b4:	0017c340 	.word	0x0017c340

0015c6b8 <filewrite_jpeg_complete>:
  15c6b8:	e52de004 	push	{lr}		; (str lr, [sp, #-4]!)
  15c6bc:	e59f303c 	ldr	r3, [pc, #60]	; 15c700 <filewrite_jpeg_complete+0x48>
  15c6c0:	e5930014 	ldr	r0, [r3, #20]
  15c6c4:	e3500000 	cmp	r0, #0
  15c6c8:	0a00000a 	beq	15c6f8 <filewrite_jpeg_complete+0x40>
  15c6cc:	e5931018 	ldr	r1, [r3, #24]
  15c6d0:	e5932008 	ldr	r2, [r3, #8]
  15c6d4:	e1510002 	cmp	r1, r2
  15c6d8:	ba000005 	blt	15c6f4 <filewrite_jpeg_complete+0x3c>
  15c6dc:	e3a02000 	mov	r2, #0
  15c6e0:	e583201c 	str	r2, [r3, #28]
  15c6e4:	e5832018 	str	r2, [r3, #24]
  15c6e8:	e5832014 	str	r2, [r3, #20]
  15c6ec:	e3a00001 	mov	r0, #1
  15c6f0:	eb004b07 	bl	16f314 <__remotecap_type_complete_from_arm>
  15c6f4:	e3a00001 	mov	r0, #1
  15c6f8:	e49de004 	pop	{lr}		; (ldr lr, [sp], #4)
  15c6fc:	e12fff1e 	bx	lr
  15c700:	0017c340 	.word	0x0017c340

0015c704 <remotecap_jpeg_chunks_done>:
  15c704:	e3a02000 	mov	r2, #0
  15c708:	e59f3004 	ldr	r3, [pc, #4]	; 15c714 <remotecap_jpeg_chunks_done+0x10>
  15c70c:	e5832000 	str	r2, [r3]
  15c710:	e12fff1e 	bx	lr
  15c714:	0017c340 	.word	0x0017c340

0015c718 <fwt_open>:
  15c718:	e52de004 	push	{lr}		; (str lr, [sp, #-4]!)
  15c71c:	e59f301c 	ldr	r3, [pc, #28]	; 15c740 <fwt_open+0x28>
  15c720:	e593c014 	ldr	ip, [r3, #20]
  15c724:	e35c0000 	cmp	ip, #0
  15c728:	13a02001 	movne	r2, #1
  15c72c:	1583201c 	strne	r2, [r3, #28]
  15c730:	13a000ff 	movne	r0, #255	; 0xff
  15c734:	0bfffa4a 	bleq	15b064 <_Open>
  15c738:	e49de004 	pop	{lr}		; (ldr lr, [sp], #4)
  15c73c:	e12fff1e 	bx	lr
  15c740:	0017c340 	.word	0x0017c340

0015c744 <fwt_write>:
  15c744:	e92d4010 	push	{r4, lr}
  15c748:	e1a03002 	mov	r3, r2
  15c74c:	e59fc028 	ldr	ip, [pc, #40]	; 15c77c <fwt_write+0x38>
  15c750:	e59c401c 	ldr	r4, [ip, #28]
  15c754:	e3540000 	cmp	r4, #0
  15c758:	159c2018 	ldrne	r2, [ip, #24]
  15c75c:	10822003 	addne	r2, r2, r3
  15c760:	158c2018 	strne	r2, [ip, #24]
  15c764:	1a000001 	bne	15c770 <fwt_write+0x2c>
  15c768:	ebfffa61 	bl	15b0f4 <_Write>
  15c76c:	e1a03000 	mov	r3, r0
  15c770:	e1a00003 	mov	r0, r3
  15c774:	e8bd4010 	pop	{r4, lr}
  15c778:	e12fff1e 	bx	lr
  15c77c:	0017c340 	.word	0x0017c340

0015c780 <fwt_lseek>:
  15c780:	e52de004 	push	{lr}		; (str lr, [sp, #-4]!)
  15c784:	e1a03001 	mov	r3, r1
  15c788:	e59fc01c 	ldr	ip, [pc, #28]	; 15c7ac <fwt_lseek+0x2c>
  15c78c:	e59cc01c 	ldr	ip, [ip, #28]
  15c790:	e35c0000 	cmp	ip, #0
  15c794:	1a000001 	bne	15c7a0 <fwt_lseek+0x20>
  15c798:	ebfffa67 	bl	15b13c <_lseek>
  15c79c:	e1a03000 	mov	r3, r0
  15c7a0:	e1a00003 	mov	r0, r3
  15c7a4:	e49de004 	pop	{lr}		; (ldr lr, [sp], #4)
  15c7a8:	e12fff1e 	bx	lr
  15c7ac:	0017c340 	.word	0x0017c340

0015c7b0 <fwt_close>:
  15c7b0:	e92d4030 	push	{r4, r5, lr}
  15c7b4:	e59f4024 	ldr	r4, [pc, #36]	; 15c7e0 <fwt_close+0x30>
  15c7b8:	e594501c 	ldr	r5, [r4, #28]
  15c7bc:	e3550000 	cmp	r5, #0
  15c7c0:	1a000002 	bne	15c7d0 <fwt_close+0x20>
  15c7c4:	ebfff9f6 	bl	15afa4 <_Close>
  15c7c8:	e5845018 	str	r5, [r4, #24]
  15c7cc:	ea000001 	b	15c7d8 <fwt_close+0x28>
  15c7d0:	ebffffb8 	bl	15c6b8 <filewrite_jpeg_complete>
  15c7d4:	e3a00000 	mov	r0, #0
  15c7d8:	e8bd4030 	pop	{r4, r5, lr}
  15c7dc:	e12fff1e 	bx	lr
  15c7e0:	0017c340 	.word	0x0017c340

0015c7e4 <filewritetask>:
  15c7e4:	e92d40fe 	push	{r1, r2, r3, r4, r5, r6, r7, lr}
  15c7e8:	e59f543c 	ldr	r5, [pc, #1084]	; 15cc2c <loc_FFA74370+0x8>
  15c7ec:	e3a06000 	mov	r6, #0

0015c7f0 <loc_FFA73EF8>:
  15c7f0:	e5950010 	ldr	r0, [r5, #16]
  15c7f4:	e3a02000 	mov	r2, #0
  15c7f8:	e28d1008 	add	r1, sp, #8
  15c7fc:	ebfff87e 	bl	15a9fc <sub_003F7418>
  15c800:	e3500000 	cmp	r0, #0
  15c804:	159f1424 	ldrne	r1, [pc, #1060]	; 15cc30 <loc_FFA74370+0xc>
  15c808:	159f0424 	ldrne	r0, [pc, #1060]	; 15cc34 <loc_FFA74370+0x10>
  15c80c:	1bfff9e6 	blne	15afac <_DebugAssert>
  15c810:	e59d0008 	ldr	r0, [sp, #8]
  15c814:	e5901000 	ldr	r1, [r0]
  15c818:	e351000d 	cmp	r1, #13
  15c81c:	308ff101 	addcc	pc, pc, r1, lsl #2
  15c820:	eafffff2 	b	15c7f0 <loc_FFA73EF8>
  15c824:	ea00005b 	b	15c998 <loc_FFA74080>
  15c828:	ea00005a 	b	15c998 <loc_FFA74080>
  15c82c:	ea000059 	b	15c998 <loc_FFA74080>
  15c830:	ea000058 	b	15c998 <loc_FFA74080>
  15c834:	ea000057 	b	15c998 <loc_FFA74080>
  15c838:	ea000056 	b	15c998 <loc_FFA74080>
  15c83c:	ea000055 	b	15c998 <loc_FFA74080>
  15c840:	ea000056 	b	15c9a0 <loc_FFA74088>
  15c844:	ea000003 	b	15c858 <loc_FFA73F60>
  15c848:	ea00002d 	b	15c904 <loc_FFA73FFC>
  15c84c:	ea000038 	b	15c934 <loc_FFA7402C>
  15c850:	ea00001a 	b	15c8c0 <loc_FFA73FC8>
  15c854:	ea000028 	b	15c8fc <loc_FFA73FF4>

0015c858 <loc_FFA73F60>:
  15c858:	e1a04005 	mov	r4, r5
  15c85c:	e58d6000 	str	r6, [sp]

0015c860 <loc_FFA73F68>:
  15c860:	e5940010 	ldr	r0, [r4, #16]
  15c864:	e1a0100d 	mov	r1, sp
  15c868:	ebfff864 	bl	15aa00 <sub_003F765C>
  15c86c:	e59d0000 	ldr	r0, [sp]
  15c870:	e3500000 	cmp	r0, #0
  15c874:	0a000004 	beq	15c88c <loc_FFA73F94>
  15c878:	e5940010 	ldr	r0, [r4, #16]
  15c87c:	e3a02000 	mov	r2, #0
  15c880:	e28d1004 	add	r1, sp, #4
  15c884:	ebfff85c 	bl	15a9fc <sub_003F7418>
  15c888:	eafffff4 	b	15c860 <loc_FFA73F68>

0015c88c <loc_FFA73F94>:
  15c88c:	e5940004 	ldr	r0, [r4, #4]
  15c890:	e3700001 	cmn	r0, #1
  15c894:	0a000006 	beq	15c8b4 <loc_FFA73FBC>
  15c898:	ebffffc4 	bl	15c7b0 <fwt_close>
  15c89c:	e3e00000 	mvn	r0, #0
  15c8a0:	e5840004 	str	r0, [r4, #4]
  15c8a4:	e59f038c 	ldr	r0, [pc, #908]	; 15cc38 <loc_FFA74370+0x14>
  15c8a8:	ebfff88f 	bl	15aaec <sub_FF875978>
  15c8ac:	e3a01000 	mov	r1, #0
  15c8b0:	ebfff88c 	bl	15aae8 <sub_FF873868>

0015c8b4 <loc_FFA73FBC>:
  15c8b4:	e594000c 	ldr	r0, [r4, #12]
  15c8b8:	ebfff9e0 	bl	15b040 <_GiveSemaphore>
  15c8bc:	eaffffcb 	b	15c7f0 <loc_FFA73EF8>

0015c8c0 <loc_FFA73FC8>:
  15c8c0:	e1a04000 	mov	r4, r0
  15c8c4:	e2800058 	add	r0, r0, #88	; 0x58
  15c8c8:	ebfff887 	bl	15aaec <sub_FF875978>
  15c8cc:	e3a01000 	mov	r1, #0
  15c8d0:	ebfff883 	bl	15aae4 <sub_FF87372C>
  15c8d4:	e594000c 	ldr	r0, [r4, #12]
  15c8d8:	ebfff87e 	bl	15aad8 <sub_FF8727E4>
  15c8dc:	e2840058 	add	r0, r4, #88	; 0x58
  15c8e0:	e59f3354 	ldr	r3, [pc, #852]	; 15cc3c <loc_FFA74370+0x18>
  15c8e4:	e5933000 	ldr	r3, [r3]
  15c8e8:	e3530000 	cmp	r3, #0
  15c8ec:	1a000021 	bne	15c978 <loc_A>
  15c8f0:	ebfff868 	bl	15aa98 <sub_FF82DAF8>
  15c8f4:	e2840058 	add	r0, r4, #88	; 0x58
  15c8f8:	ea00001e 	b	15c978 <loc_A>

0015c8fc <loc_FFA73FF4>:
  15c8fc:	eb000029 	bl	15c9a8 <sub_FFA73BD8_my>
  15c900:	eaffffba 	b	15c7f0 <loc_FFA73EF8>

0015c904 <loc_FFA73FFC>:
  15c904:	e5901004 	ldr	r1, [r0, #4]
  15c908:	e1a04000 	mov	r4, r0
  15c90c:	e5950004 	ldr	r0, [r5, #4]
  15c910:	e3a02000 	mov	r2, #0
  15c914:	ebffff99 	bl	15c780 <fwt_lseek>
  15c918:	e3700001 	cmn	r0, #1
  15c91c:	059f031c 	ldreq	r0, [pc, #796]	; 15cc40 <loc_FFA74370+0x1c>
  15c920:	01a01004 	moveq	r1, r4
  15c924:	05840010 	streq	r0, [r4, #16]
  15c928:	03a00007 	moveq	r0, #7
  15c92c:	0bfff8d8 	bleq	15ac94 <sub_FFA73B18>
  15c930:	eaffffae 	b	15c7f0 <loc_FFA73EF8>

0015c934 <loc_FFA7402C>:
  15c934:	e1a04000 	mov	r4, r0
  15c938:	e1d005d8 	ldrsb	r0, [r0, #88]	; 0x58
  15c93c:	e3500000 	cmp	r0, #0
  15c940:	0affffaa 	beq	15c7f0 <loc_FFA73EF8>
  15c944:	e5cd0004 	strb	r0, [sp, #4]
  15c948:	e2840058 	add	r0, r4, #88	; 0x58
  15c94c:	e5cd6005 	strb	r6, [sp, #5]
  15c950:	ebfff865 	bl	15aaec <sub_FF875978>
  15c954:	e3a01000 	mov	r1, #0
  15c958:	ebfff861 	bl	15aae4 <sub_FF87372C>
  15c95c:	e59f32d8 	ldr	r3, [pc, #728]	; 15cc3c <loc_FFA74370+0x18>
  15c960:	e5933000 	ldr	r3, [r3]
  15c964:	e3530000 	cmp	r3, #0
  15c968:	1a000001 	bne	15c974 <loc_B>
  15c96c:	e28d0004 	add	r0, sp, #4
  15c970:	ebfff859 	bl	15aadc <sub_FF8727FC>

0015c974 <loc_B>:
  15c974:	e2840058 	add	r0, r4, #88	; 0x58

0015c978 <loc_A>:
  15c978:	ebfff85b 	bl	15aaec <sub_FF875978>
  15c97c:	e5951018 	ldr	r1, [r5, #24]
  15c980:	ebfff858 	bl	15aae8 <sub_FF873868>
  15c984:	e5951014 	ldr	r1, [r5, #20]
  15c988:	e3510000 	cmp	r1, #0
  15c98c:	15940010 	ldrne	r0, [r4, #16]
  15c990:	112fff31 	blxne	r1
  15c994:	eaffff95 	b	15c7f0 <loc_FFA73EF8>

0015c998 <loc_FFA74080>:
  15c998:	eb00006b 	bl	15cb4c <sub_FFA74298_my>
  15c99c:	eaffff93 	b	15c7f0 <loc_FFA73EF8>

0015c9a0 <loc_FFA74088>:
  15c9a0:	eb0000af 	bl	15cc64 <sub_FFA73D64_my>
  15c9a4:	eaffff91 	b	15c7f0 <loc_FFA73EF8>

0015c9a8 <sub_FFA73BD8_my>:
  15c9a8:	e92d41f0 	push	{r4, r5, r6, r7, r8, lr}
  15c9ac:	e1a04000 	mov	r4, r0
  15c9b0:	ebffff29 	bl	15c65c <filewrite_main_hook>
  15c9b4:	e1a00004 	mov	r0, r4
  15c9b8:	e590004c 	ldr	r0, [r0, #76]	; 0x4c
  15c9bc:	e24dd038 	sub	sp, sp, #56	; 0x38
  15c9c0:	e3100001 	tst	r0, #1
  15c9c4:	0a000054 	beq	15cb1c <loc_C>
  15c9c8:	e2840058 	add	r0, r4, #88	; 0x58
  15c9cc:	ebfff846 	bl	15aaec <sub_FF875978>
  15c9d0:	e3a01000 	mov	r1, #0
  15c9d4:	ebfff842 	bl	15aae4 <sub_FF87372C>
  15c9d8:	e594000c 	ldr	r0, [r4, #12]
  15c9dc:	ebfff83d 	bl	15aad8 <sub_FF8727E4>
  15c9e0:	e594004c 	ldr	r0, [r4, #76]	; 0x4c
  15c9e4:	e59f5258 	ldr	r5, [pc, #600]	; 15cc44 <loc_FFA74370+0x20>
  15c9e8:	e3100010 	tst	r0, #16
  15c9ec:	13a05009 	movne	r5, #9
  15c9f0:	1a000001 	bne	15c9fc <loc_FFA73C24>
  15c9f4:	e3100040 	tst	r0, #64	; 0x40
  15c9f8:	13a05001 	movne	r5, #1

0015c9fc <loc_FFA73C24>:
  15c9fc:	e3100020 	tst	r0, #32
  15ca00:	1a000002 	bne	15ca10 <loc_FFA73C38>
  15ca04:	e5940054 	ldr	r0, [r4, #84]	; 0x54
  15ca08:	e3500001 	cmp	r0, #1
  15ca0c:	1a000000 	bne	15ca14 <loc_FFA73C3C>

0015ca10 <loc_FFA73C38>:
  15ca10:	e3855902 	orr	r5, r5, #32768	; 0x8000

0015ca14 <loc_FFA73C3C>:
  15ca14:	e59f822c 	ldr	r8, [pc, #556]	; 15cc48 <loc_FFA74370+0x24>
  15ca18:	e2847058 	add	r7, r4, #88	; 0x58
  15ca1c:	e594600c 	ldr	r6, [r4, #12]
  15ca20:	e1a02008 	mov	r2, r8
  15ca24:	e1a01005 	mov	r1, r5
  15ca28:	e1a00007 	mov	r0, r7
  15ca2c:	ebffff39 	bl	15c718 <fwt_open>
  15ca30:	e3700001 	cmn	r0, #1
  15ca34:	1a000016 	bne	15ca94 <loc_FFA73CBC>
  15ca38:	e1a00007 	mov	r0, r7
  15ca3c:	ebfff815 	bl	15aa98 <sub_FF82DAF8>
  15ca40:	e3a0200f 	mov	r2, #15
  15ca44:	e1a01007 	mov	r1, r7
  15ca48:	e1a0000d 	mov	r0, sp
  15ca4c:	ebfff7f4 	bl	15aa24 <sub_003FC550>
  15ca50:	e3a00000 	mov	r0, #0
  15ca54:	e59f11f0 	ldr	r1, [pc, #496]	; 15cc4c <loc_FFA74370+0x28>
  15ca58:	e5cd000f 	strb	r0, [sp, #15]
  15ca5c:	e58d1020 	str	r1, [sp, #32]
  15ca60:	e3a01010 	mov	r1, #16
  15ca64:	e58d0028 	str	r0, [sp, #40]	; 0x28
  15ca68:	e58d1024 	str	r1, [sp, #36]	; 0x24
  15ca6c:	e28d1020 	add	r1, sp, #32
  15ca70:	e1a0000d 	mov	r0, sp
  15ca74:	e58d602c 	str	r6, [sp, #44]	; 0x2c
  15ca78:	e58d6030 	str	r6, [sp, #48]	; 0x30
  15ca7c:	e58d6034 	str	r6, [sp, #52]	; 0x34
  15ca80:	ebfff816 	bl	15aae0 <sub_FF8730A8>
  15ca84:	e1a02008 	mov	r2, r8
  15ca88:	e1a01005 	mov	r1, r5
  15ca8c:	e1a00007 	mov	r0, r7
  15ca90:	ebfff973 	bl	15b064 <_Open>

0015ca94 <loc_FFA73CBC>:
  15ca94:	e59f6190 	ldr	r6, [pc, #400]	; 15cc2c <loc_FFA74370+0x8>
  15ca98:	e3700001 	cmn	r0, #1
  15ca9c:	e1a05000 	mov	r5, r0
  15caa0:	e5860004 	str	r0, [r6, #4]
  15caa4:	1a00000a 	bne	15cad4 <loc_FFA73CFC>
  15caa8:	e2840058 	add	r0, r4, #88	; 0x58
  15caac:	ebfff80e 	bl	15aaec <sub_FF875978>
  15cab0:	e5961018 	ldr	r1, [r6, #24]
  15cab4:	ebfff80b 	bl	15aae8 <sub_FF873868>
  15cab8:	e5961014 	ldr	r1, [r6, #20]
  15cabc:	e3510000 	cmp	r1, #0
  15cac0:	0a00001f 	beq	15cb44 <loc_FFA73D5C>
  15cac4:	e28dd038 	add	sp, sp, #56	; 0x38
  15cac8:	e8bd41f0 	pop	{r4, r5, r6, r7, r8, lr}
  15cacc:	e59f017c 	ldr	r0, [pc, #380]	; 15cc50 <loc_FFA74370+0x2c>
  15cad0:	e12fff11 	bx	r1

0015cad4 <loc_FFA73CFC>:
  15cad4:	e59f015c 	ldr	r0, [pc, #348]	; 15cc38 <loc_FFA74370+0x14>
  15cad8:	e3a02020 	mov	r2, #32
  15cadc:	e2841058 	add	r1, r4, #88	; 0x58
  15cae0:	ebfff7d0 	bl	15aa28 <sub_003FC738>
  15cae4:	e59f3168 	ldr	r3, [pc, #360]	; 15cc54 <loc_FFA74370+0x30>
  15cae8:	e5933000 	ldr	r3, [r3]
  15caec:	e3530000 	cmp	r3, #0
  15caf0:	1a000009 	bne	15cb1c <loc_C>
  15caf4:	e594004c 	ldr	r0, [r4, #76]	; 0x4c
  15caf8:	e3100080 	tst	r0, #128	; 0x80
  15cafc:	0a000006 	beq	15cb1c <loc_C>
  15cb00:	e5941008 	ldr	r1, [r4, #8]
  15cb04:	e1a00005 	mov	r0, r5
  15cb08:	ebfff7e1 	bl	15aa94 <sub_FF82D7C8>
  15cb0c:	e3500000 	cmp	r0, #0
  15cb10:	01a01004 	moveq	r1, r4
  15cb14:	03a00007 	moveq	r0, #7
  15cb18:	0a000008 	beq	15cb40 <loc_FFA73D58>

0015cb1c <loc_C>:
  15cb1c:	e594004c 	ldr	r0, [r4, #76]	; 0x4c
  15cb20:	e3100040 	tst	r0, #64	; 0x40
  15cb24:	05940004 	ldreq	r0, [r4, #4]
  15cb28:	03500000 	cmpeq	r0, #0
  15cb2c:	11a01004 	movne	r1, r4
  15cb30:	13a00009 	movne	r0, #9
  15cb34:	1bfff856 	blne	15ac94 <sub_FFA73B18>
  15cb38:	e1a01004 	mov	r1, r4
  15cb3c:	e3a00000 	mov	r0, #0

0015cb40 <loc_FFA73D58>:
  15cb40:	ebfff853 	bl	15ac94 <sub_FFA73B18>

0015cb44 <loc_FFA73D5C>:
  15cb44:	e28dd038 	add	sp, sp, #56	; 0x38
  15cb48:	e8bd81f0 	pop	{r4, r5, r6, r7, r8, pc}

0015cb4c <sub_FFA74298_my>:
  15cb4c:	e92d47f0 	push	{r4, r5, r6, r7, r8, r9, sl, lr}
  15cb50:	e1a05000 	mov	r5, r0
  15cb54:	e5900000 	ldr	r0, [r0]
  15cb58:	e3500006 	cmp	r0, #6
  15cb5c:	8a000005 	bhi	15cb78 <loc_FFA742C4>
  15cb60:	e0850180 	add	r0, r5, r0, lsl #3
  15cb64:	e5b08014 	ldr	r8, [r0, #20]!
  15cb68:	e5907004 	ldr	r7, [r0, #4]
  15cb6c:	e3570000 	cmp	r7, #0
  15cb70:	1a000006 	bne	15cb90 <loc_FFA742DC>
  15cb74:	ea000002 	b	15cb84 <loc_FFA742D0>

0015cb78 <loc_FFA742C4>:
  15cb78:	e3a01fd1 	mov	r1, #836	; 0x344
  15cb7c:	e59f00b0 	ldr	r0, [pc, #176]	; 15cc34 <loc_FFA74370+0x10>
  15cb80:	ebfff909 	bl	15afac <_DebugAssert>

0015cb84 <loc_FFA742D0>:
  15cb84:	e1a01005 	mov	r1, r5
  15cb88:	e3a00007 	mov	r0, #7
  15cb8c:	ea000024 	b	15cc24 <loc_FFA74370>

0015cb90 <loc_FFA742DC>:
  15cb90:	e59f9094 	ldr	r9, [pc, #148]	; 15cc2c <loc_FFA74370+0x8>
  15cb94:	e1a04007 	mov	r4, r7

0015cb98 <loc_FFA742E4>:
  15cb98:	e5950004 	ldr	r0, [r5, #4]
  15cb9c:	e3540401 	cmp	r4, #16777216	; 0x1000000
  15cba0:	91a06004 	movls	r6, r4
  15cba4:	83a06401 	movhi	r6, #16777216	; 0x1000000
  15cba8:	e3c014ff 	bic	r1, r0, #-16777216	; 0xff000000
  15cbac:	e3510000 	cmp	r1, #0
  15cbb0:	13c004ff 	bicne	r0, r0, #-16777216	; 0xff000000
  15cbb4:	12600401 	rsbne	r0, r0, #16777216	; 0x1000000
  15cbb8:	11560000 	cmpne	r6, r0
  15cbbc:	81a06000 	movhi	r6, r0
  15cbc0:	e5990004 	ldr	r0, [r9, #4]
  15cbc4:	e1a02006 	mov	r2, r6
  15cbc8:	e1a01008 	mov	r1, r8
  15cbcc:	ebfffedc 	bl	15c744 <fwt_write>
  15cbd0:	e5951004 	ldr	r1, [r5, #4]
  15cbd4:	e1560000 	cmp	r6, r0
  15cbd8:	e0811000 	add	r1, r1, r0
  15cbdc:	e5851004 	str	r1, [r5, #4]
  15cbe0:	0a000004 	beq	15cbf8 <loc_FFA74344>
  15cbe4:	e3700001 	cmn	r0, #1
  15cbe8:	159f0068 	ldrne	r0, [pc, #104]	; 15cc58 <loc_FFA74370+0x34>
  15cbec:	059f0068 	ldreq	r0, [pc, #104]	; 15cc5c <loc_FFA74370+0x38>
  15cbf0:	e5850010 	str	r0, [r5, #16]
  15cbf4:	eaffffe2 	b	15cb84 <loc_FFA742D0>

0015cbf8 <loc_FFA74344>:
  15cbf8:	e0444000 	sub	r4, r4, r0
  15cbfc:	e1540007 	cmp	r4, r7
  15cc00:	259f1058 	ldrcs	r1, [pc, #88]	; 15cc60 <loc_FFA74370+0x3c>
  15cc04:	e0888000 	add	r8, r8, r0
  15cc08:	259f0024 	ldrcs	r0, [pc, #36]	; 15cc34 <loc_FFA74370+0x10>
  15cc0c:	2bfff8e6 	blcs	15afac <_DebugAssert>
  15cc10:	e3540000 	cmp	r4, #0
  15cc14:	1affffdf 	bne	15cb98 <loc_FFA742E4>
  15cc18:	e5950000 	ldr	r0, [r5]
  15cc1c:	e1a01005 	mov	r1, r5
  15cc20:	e2800001 	add	r0, r0, #1

0015cc24 <loc_FFA74370>:
  15cc24:	e8bd47f0 	pop	{r4, r5, r6, r7, r8, r9, sl, lr}
  15cc28:	eafff819 	b	15ac94 <sub_FFA73B18>
  15cc2c:	0000a814 	.word	0x0000a814
  15cc30:	000003ef 	.word	0x000003ef
  15cc34:	ffa740b8 	.word	0xffa740b8
  15cc38:	000ec3e0 	.word	0x000ec3e0
  15cc3c:	0017c354 	.word	0x0017c354
  15cc40:	09200013 	.word	0x09200013
  15cc44:	00000301 	.word	0x00000301
  15cc48:	000001b6 	.word	0x000001b6
  15cc4c:	000041ff 	.word	0x000041ff
  15cc50:	09200001 	.word	0x09200001
  15cc54:	0017c35c 	.word	0x0017c35c
  15cc58:	09200015 	.word	0x09200015
  15cc5c:	09200005 	.word	0x09200005
  15cc60:	0000036f 	.word	0x0000036f

0015cc64 <sub_FFA73D64_my>:
  15cc64:	e92d4070 	push	{r4, r5, r6, lr}
  15cc68:	e1a04000 	mov	r4, r0
  15cc6c:	e590004c 	ldr	r0, [r0, #76]	; 0x4c
  15cc70:	e59f5044 	ldr	r5, [pc, #68]	; 15ccbc <loc_D+0x8>
  15cc74:	e3100002 	tst	r0, #2
  15cc78:	e24dd038 	sub	sp, sp, #56	; 0x38
  15cc7c:	0afff809 	beq	15aca8 <sub_FFA73ECC>
  15cc80:	e5950004 	ldr	r0, [r5, #4]
  15cc84:	e3700001 	cmn	r0, #1
  15cc88:	0afff805 	beq	15aca4 <sub_FFA73DB8>
  15cc8c:	e5941054 	ldr	r1, [r4, #84]	; 0x54
  15cc90:	e59f6028 	ldr	r6, [pc, #40]	; 15ccc0 <loc_D+0xc>
  15cc94:	e3510001 	cmp	r1, #1
  15cc98:	1a000005 	bne	15ccb4 <loc_D>
  15cc9c:	e59f3020 	ldr	r3, [pc, #32]	; 15ccc4 <loc_D+0x10>
  15cca0:	e5933000 	ldr	r3, [r3]
  15cca4:	e3530000 	cmp	r3, #0
  15cca8:	1a000001 	bne	15ccb4 <loc_D>
  15ccac:	ebfff777 	bl	15aa90 <sub_FF82D51C>
  15ccb0:	eafff7fa 	b	15aca0 <sub_FFA73DA8>

0015ccb4 <loc_D>:
  15ccb4:	ebfffebd 	bl	15c7b0 <fwt_close>
  15ccb8:	e59ff008 	ldr	pc, [pc, #8]	; 15ccc8 <loc_D+0x14>
  15ccbc:	0000a814 	.word	0x0000a814
  15ccc0:	09200003 	.word	0x09200003
  15ccc4:	0017c35c 	.word	0x0017c35c
  15ccc8:	ffa73da8 	.word	0xffa73da8

0015cccc <schedule_memdump>:
  15cccc:	b500      	push	{lr}
  15ccce:	f012 fd57 	bl	16f780 <__get_tick_count_from_thumb>
  15ccd2:	4b04      	ldr	r3, [pc, #16]	; (15cce4 <schedule_memdump+0x18>)
  15ccd4:	6819      	ldr	r1, [r3, #0]
  15ccd6:	22fa      	movs	r2, #250	; 0xfa
  15ccd8:	0092      	lsls	r2, r2, #2
  15ccda:	434a      	muls	r2, r1
  15ccdc:	1880      	adds	r0, r0, r2
  15ccde:	6058      	str	r0, [r3, #4]
  15cce0:	bc01      	pop	{r0}
  15cce2:	4700      	bx	r0
  15cce4:	0017c360 	.word	0x0017c360

0015cce8 <dump_memory>:
  15cce8:	b5f1      	push	{r0, r4, r5, r6, r7, lr}
  15ccea:	4b33      	ldr	r3, [pc, #204]	; (15cdb8 <dump_memory+0xd0>)
  15ccec:	4d33      	ldr	r5, [pc, #204]	; (15cdbc <dump_memory+0xd4>)
  15ccee:	5959      	ldr	r1, [r3, r5]
  15ccf0:	4a33      	ldr	r2, [pc, #204]	; (15cdc0 <dump_memory+0xd8>)
  15ccf2:	2900      	cmp	r1, #0
  15ccf4:	d102      	bne.n	15ccfc <dump_memory+0x14>
  15ccf6:	6d91      	ldr	r1, [r2, #88]	; 0x58
  15ccf8:	3101      	adds	r1, #1
  15ccfa:	5159      	str	r1, [r3, r5]
  15ccfc:	6d91      	ldr	r1, [r2, #88]	; 0x58
  15ccfe:	4f31      	ldr	r7, [pc, #196]	; (15cdc4 <dump_memory+0xdc>)
  15cd00:	59da      	ldr	r2, [r3, r7]
  15cd02:	428a      	cmp	r2, r1
  15cd04:	d901      	bls.n	15cd0a <dump_memory+0x22>
  15cd06:	2200      	movs	r2, #0
  15cd08:	51da      	str	r2, [r3, r7]
  15cd0a:	4b2b      	ldr	r3, [pc, #172]	; (15cdb8 <dump_memory+0xd0>)
  15cd0c:	59da      	ldr	r2, [r3, r7]
  15cd0e:	3101      	adds	r1, #1
  15cd10:	5958      	ldr	r0, [r3, r5]
  15cd12:	1810      	adds	r0, r2, r0
  15cd14:	4288      	cmp	r0, r1
  15cd16:	d902      	bls.n	15cd1e <dump_memory+0x36>
  15cd18:	1a8a      	subs	r2, r1, r2
  15cd1a:	4828      	ldr	r0, [pc, #160]	; (15cdbc <dump_memory+0xd4>)
  15cd1c:	501a      	str	r2, [r3, r0]
  15cd1e:	2001      	movs	r0, #1
  15cd20:	f012 fb3e 	bl	16f3a0 <__debug_led_from_thumb>
  15cd24:	f007 fd74 	bl	164810 <is_video_recording>
  15cd28:	2800      	cmp	r0, #0
  15cd2a:	d13f      	bne.n	15cdac <dump_memory+0xc4>
  15cd2c:	4826      	ldr	r0, [pc, #152]	; (15cdc8 <dump_memory+0xe0>)
  15cd2e:	f012 fc1f 	bl	16f570 <__mkdir_from_thumb>
  15cd32:	4826      	ldr	r0, [pc, #152]	; (15cdcc <dump_memory+0xe4>)
  15cd34:	f012 fc1c 	bl	16f570 <__mkdir_from_thumb>
  15cd38:	4c25      	ldr	r4, [pc, #148]	; (15cdd0 <dump_memory+0xe8>)
  15cd3a:	4e26      	ldr	r6, [pc, #152]	; (15cdd4 <dump_memory+0xec>)
  15cd3c:	3608      	adds	r6, #8
  15cd3e:	6822      	ldr	r2, [r4, #0]
  15cd40:	1c53      	adds	r3, r2, #1
  15cd42:	6023      	str	r3, [r4, #0]
  15cd44:	1c30      	adds	r0, r6, #0
  15cd46:	4924      	ldr	r1, [pc, #144]	; (15cdd8 <dump_memory+0xf0>)
  15cd48:	f012 fb4e 	bl	16f3e8 <__sprintf_from_thumb>
  15cd4c:	1c30      	adds	r0, r6, #0
  15cd4e:	2100      	movs	r1, #0
  15cd50:	f012 fd1e 	bl	16f790 <__stat_from_thumb>
  15cd54:	2800      	cmp	r0, #0
  15cd56:	d007      	beq.n	15cd68 <dump_memory+0x80>
  15cd58:	1c30      	adds	r0, r6, #0
  15cd5a:	4920      	ldr	r1, [pc, #128]	; (15cddc <dump_memory+0xf4>)
  15cd5c:	4a20      	ldr	r2, [pc, #128]	; (15cde0 <dump_memory+0xf8>)
  15cd5e:	f012 fd3f 	bl	16f7e0 <__open_from_thumb>
  15cd62:	1e04      	subs	r4, r0, #0
  15cd64:	d105      	bne.n	15cd72 <dump_memory+0x8a>
  15cd66:	e01f      	b.n	15cda8 <dump_memory+0xc0>
  15cd68:	6822      	ldr	r2, [r4, #0]
  15cd6a:	4b1e      	ldr	r3, [pc, #120]	; (15cde4 <dump_memory+0xfc>)
  15cd6c:	429a      	cmp	r2, r3
  15cd6e:	dde6      	ble.n	15cd3e <dump_memory+0x56>
  15cd70:	e01a      	b.n	15cda8 <dump_memory+0xc0>
  15cd72:	4e11      	ldr	r6, [pc, #68]	; (15cdb8 <dump_memory+0xd0>)
  15cd74:	59f1      	ldr	r1, [r6, r7]
  15cd76:	2900      	cmp	r1, #0
  15cd78:	d10f      	bne.n	15cd9a <dump_memory+0xb2>
  15cd7a:	2380      	movs	r3, #128	; 0x80
  15cd7c:	05db      	lsls	r3, r3, #23
  15cd7e:	681b      	ldr	r3, [r3, #0]
  15cd80:	9300      	str	r3, [sp, #0]
  15cd82:	1c20      	adds	r0, r4, #0
  15cd84:	4669      	mov	r1, sp
  15cd86:	2204      	movs	r2, #4
  15cd88:	f012 fc02 	bl	16f590 <__write_from_thumb>
  15cd8c:	5972      	ldr	r2, [r6, r5]
  15cd8e:	2a04      	cmp	r2, #4
  15cd90:	dd07      	ble.n	15cda2 <dump_memory+0xba>
  15cd92:	3a04      	subs	r2, #4
  15cd94:	1c20      	adds	r0, r4, #0
  15cd96:	2104      	movs	r1, #4
  15cd98:	e001      	b.n	15cd9e <dump_memory+0xb6>
  15cd9a:	5972      	ldr	r2, [r6, r5]
  15cd9c:	1c20      	adds	r0, r4, #0
  15cd9e:	f012 fbf7 	bl	16f590 <__write_from_thumb>
  15cda2:	1c20      	adds	r0, r4, #0
  15cda4:	f012 fce0 	bl	16f768 <__close_from_thumb>
  15cda8:	f012 fc2e 	bl	16f608 <__vid_bitmap_refresh_from_thumb>
  15cdac:	2000      	movs	r0, #0
  15cdae:	f012 faf7 	bl	16f3a0 <__debug_led_from_thumb>
  15cdb2:	bcf1      	pop	{r0, r4, r5, r6, r7}
  15cdb4:	bc01      	pop	{r0}
  15cdb6:	4700      	bx	r0
  15cdb8:	001766e4 	.word	0x001766e4
  15cdbc:	00000848 	.word	0x00000848
  15cdc0:	0017805c 	.word	0x0017805c
  15cdc4:	00000844 	.word	0x00000844
  15cdc8:	001733c4 	.word	0x001733c4
  15cdcc:	001733cb 	.word	0x001733cb
  15cdd0:	00174b18 	.word	0x00174b18
  15cdd4:	0017c360 	.word	0x0017c360
  15cdd8:	001733db 	.word	0x001733db
  15cddc:	00000101 	.word	0x00000101
  15cde0:	000001ff 	.word	0x000001ff
  15cde4:	0000270e 	.word	0x0000270e

0015cde8 <core_get_free_memory>:
  15cde8:	b500      	push	{lr}
  15cdea:	b089      	sub	sp, #36	; 0x24
  15cdec:	4668      	mov	r0, sp
  15cdee:	f001 f8eb 	bl	15dfc8 <GetCombinedMemInfo>
  15cdf2:	9807      	ldr	r0, [sp, #28]
  15cdf4:	b009      	add	sp, #36	; 0x24
  15cdf6:	bc02      	pop	{r1}
  15cdf8:	4708      	bx	r1

0015cdfa <core_rawdata_available>:
  15cdfa:	2201      	movs	r2, #1
  15cdfc:	4b01      	ldr	r3, [pc, #4]	; (15ce04 <core_rawdata_available+0xa>)
  15cdfe:	629a      	str	r2, [r3, #40]	; 0x28
  15ce00:	4770      	bx	lr
  15ce02:	46c0      	nop			; (mov r8, r8)
  15ce04:	0017c360 	.word	0x0017c360

0015ce08 <core_spytask_can_start>:
  15ce08:	2201      	movs	r2, #1
  15ce0a:	4b01      	ldr	r3, [pc, #4]	; (15ce10 <core_spytask_can_start+0x8>)
  15ce0c:	62da      	str	r2, [r3, #44]	; 0x2c
  15ce0e:	4770      	bx	lr
  15ce10:	0017c360 	.word	0x0017c360

0015ce14 <script_autostart>:
  15ce14:	b500      	push	{lr}
  15ce16:	f003 f803 	bl	15fe20 <enter_alt>
  15ce1a:	f002 ff6f 	bl	15fcfc <gui_activate_alt_mode>
  15ce1e:	2001      	movs	r0, #1
  15ce20:	f00d fbb8 	bl	16a594 <script_start_gui>
  15ce24:	bc01      	pop	{r0}
  15ce26:	4700      	bx	r0

0015ce28 <core_spytask>:
  15ce28:	b5f0      	push	{r4, r5, r6, r7, lr}
  15ce2a:	b085      	sub	sp, #20
  15ce2c:	f007 ff38 	bl	164ca0 <camera_info_init>
  15ce30:	4d80      	ldr	r5, [pc, #512]	; (15d034 <core_spytask+0x20c>)
  15ce32:	2300      	movs	r3, #0
  15ce34:	62eb      	str	r3, [r5, #44]	; 0x2c
  15ce36:	f001 f8b3 	bl	15dfa0 <aram_malloc_init>
  15ce3a:	f001 f89f 	bl	15df7c <exmem_malloc_init>
  15ce3e:	f00c fbeb 	bl	169618 <init_chdk_ptp_task>
  15ce42:	4c7d      	ldr	r4, [pc, #500]	; (15d038 <core_spytask+0x210>)
  15ce44:	e002      	b.n	15ce4c <core_spytask+0x24>
  15ce46:	200a      	movs	r0, #10
  15ce48:	f012 fcfe 	bl	16f848 <__msleep_from_thumb>
  15ce4c:	3c01      	subs	r4, #1
  15ce4e:	2c00      	cmp	r4, #0
  15ce50:	d002      	beq.n	15ce58 <core_spytask+0x30>
  15ce52:	6aeb      	ldr	r3, [r5, #44]	; 0x2c
  15ce54:	2b00      	cmp	r3, #0
  15ce56:	d0f6      	beq.n	15ce46 <core_spytask+0x1e>
  15ce58:	2001      	movs	r0, #1
  15ce5a:	f012 faa1 	bl	16f3a0 <__debug_led_from_thumb>
  15ce5e:	2032      	movs	r0, #50	; 0x32
  15ce60:	f012 fcf2 	bl	16f848 <__msleep_from_thumb>
  15ce64:	2000      	movs	r0, #0
  15ce66:	f012 fa9b 	bl	16f3a0 <__debug_led_from_thumb>
  15ce6a:	f003 fcf9 	bl	160860 <conf_restore>
  15ce6e:	f002 fde3 	bl	15fa38 <gui_init>
  15ce72:	4872      	ldr	r0, [pc, #456]	; (15d03c <core_spytask+0x214>)
  15ce74:	f012 fb7c 	bl	16f570 <__mkdir_from_thumb>
  15ce78:	4871      	ldr	r0, [pc, #452]	; (15d040 <core_spytask+0x218>)
  15ce7a:	f012 fb79 	bl	16f570 <__mkdir_from_thumb>
  15ce7e:	4871      	ldr	r0, [pc, #452]	; (15d044 <core_spytask+0x21c>)
  15ce80:	f012 fb76 	bl	16f570 <__mkdir_from_thumb>
  15ce84:	4870      	ldr	r0, [pc, #448]	; (15d048 <core_spytask+0x220>)
  15ce86:	f012 fb73 	bl	16f570 <__mkdir_from_thumb>
  15ce8a:	4870      	ldr	r0, [pc, #448]	; (15d04c <core_spytask+0x224>)
  15ce8c:	f012 fb70 	bl	16f570 <__mkdir_from_thumb>
  15ce90:	486f      	ldr	r0, [pc, #444]	; (15d050 <core_spytask+0x228>)
  15ce92:	f012 fb6d 	bl	16f570 <__mkdir_from_thumb>
  15ce96:	486f      	ldr	r0, [pc, #444]	; (15d054 <core_spytask+0x22c>)
  15ce98:	f012 fb6a 	bl	16f570 <__mkdir_from_thumb>
  15ce9c:	486e      	ldr	r0, [pc, #440]	; (15d058 <core_spytask+0x230>)
  15ce9e:	f012 fb67 	bl	16f570 <__mkdir_from_thumb>
  15cea2:	486e      	ldr	r0, [pc, #440]	; (15d05c <core_spytask+0x234>)
  15cea4:	f012 fb64 	bl	16f570 <__mkdir_from_thumb>
  15cea8:	486d      	ldr	r0, [pc, #436]	; (15d060 <core_spytask+0x238>)
  15ceaa:	f012 fb61 	bl	16f570 <__mkdir_from_thumb>
  15ceae:	486d      	ldr	r0, [pc, #436]	; (15d064 <core_spytask+0x23c>)
  15ceb0:	f012 fb5e 	bl	16f570 <__mkdir_from_thumb>
  15ceb4:	486c      	ldr	r0, [pc, #432]	; (15d068 <core_spytask+0x240>)
  15ceb6:	f012 fb5b 	bl	16f570 <__mkdir_from_thumb>
  15ceba:	486c      	ldr	r0, [pc, #432]	; (15d06c <core_spytask+0x244>)
  15cebc:	f012 fb58 	bl	16f570 <__mkdir_from_thumb>
  15cec0:	2000      	movs	r0, #0
  15cec2:	f012 fb2d 	bl	16f520 <__time_from_thumb>
  15cec6:	1c06      	adds	r6, r0, #0
  15cec8:	4d69      	ldr	r5, [pc, #420]	; (15d070 <core_spytask+0x248>)
  15ceca:	e000      	b.n	15cece <core_spytask+0xa6>
  15cecc:	1c26      	adds	r6, r4, #0
  15cece:	f012 fc57 	bl	16f780 <__get_tick_count_from_thumb>
  15ced2:	67a8      	str	r0, [r5, #120]	; 0x78
  15ced4:	2000      	movs	r0, #0
  15ced6:	f012 fb23 	bl	16f520 <__time_from_thumb>
  15ceda:	1c04      	adds	r4, r0, #0
  15cedc:	200a      	movs	r0, #10
  15cede:	f012 fcb3 	bl	16f848 <__msleep_from_thumb>
  15cee2:	42a6      	cmp	r6, r4
  15cee4:	d1f2      	bne.n	15cecc <core_spytask+0xa4>
  15cee6:	6fa8      	ldr	r0, [r5, #120]	; 0x78
  15cee8:	21fa      	movs	r1, #250	; 0xfa
  15ceea:	0089      	lsls	r1, r1, #2
  15ceec:	f012 fb00 	bl	16f4f0 <____modsi3_from_thumb>
  15cef0:	67a8      	str	r0, [r5, #120]	; 0x78
  15cef2:	4a60      	ldr	r2, [pc, #384]	; (15d074 <core_spytask+0x24c>)
  15cef4:	23d1      	movs	r3, #209	; 0xd1
  15cef6:	00db      	lsls	r3, r3, #3
  15cef8:	58d1      	ldr	r1, [r2, r3]
  15cefa:	2901      	cmp	r1, #1
  15cefc:	d005      	beq.n	15cf0a <core_spytask+0xe2>
  15cefe:	2902      	cmp	r1, #2
  15cf00:	d105      	bne.n	15cf0e <core_spytask+0xe6>
  15cf02:	2100      	movs	r1, #0
  15cf04:	50d1      	str	r1, [r2, r3]
  15cf06:	f003 fb89 	bl	16061c <conf_save>
  15cf0a:	f7ff ff83 	bl	15ce14 <script_autostart>
  15cf0e:	f006 fe0d 	bl	163b2c <shooting_init>
  15cf12:	2601      	movs	r6, #1
  15cf14:	4f56      	ldr	r7, [pc, #344]	; (15d070 <core_spytask+0x248>)
  15cf16:	1c3d      	adds	r5, r7, #0
  15cf18:	35f0      	adds	r5, #240	; 0xf0
  15cf1a:	f007 fd16 	bl	16494a <mode_get>
  15cf1e:	4c45      	ldr	r4, [pc, #276]	; (15d034 <core_spytask+0x20c>)
  15cf20:	6863      	ldr	r3, [r4, #4]
  15cf22:	2b00      	cmp	r3, #0
  15cf24:	d008      	beq.n	15cf38 <core_spytask+0x110>
  15cf26:	f012 fc2b 	bl	16f780 <__get_tick_count_from_thumb>
  15cf2a:	6863      	ldr	r3, [r4, #4]
  15cf2c:	4298      	cmp	r0, r3
  15cf2e:	d303      	bcc.n	15cf38 <core_spytask+0x110>
  15cf30:	2300      	movs	r3, #0
  15cf32:	6063      	str	r3, [r4, #4]
  15cf34:	f7ff fed8 	bl	15cce8 <dump_memory>
  15cf38:	f002 fee0 	bl	15fcfc <gui_activate_alt_mode>
  15cf3c:	f012 fa88 	bl	16f450 <__load_chdk_palette_from_thumb>
  15cf40:	6aa3      	ldr	r3, [r4, #40]	; 0x28
  15cf42:	2b00      	cmp	r3, #0
  15cf44:	d006      	beq.n	15cf54 <core_spytask+0x12c>
  15cf46:	f005 fec7 	bl	162cd8 <raw_process>
  15cf4a:	f012 fb3d 	bl	16f5c8 <__hook_raw_save_complete_from_thumb>
  15cf4e:	2300      	movs	r3, #0
  15cf50:	62a3      	str	r3, [r4, #40]	; 0x28
  15cf52:	e7e2      	b.n	15cf1a <core_spytask+0xf2>
  15cf54:	682b      	ldr	r3, [r5, #0]
  15cf56:	2b02      	cmp	r3, #2
  15cf58:	d103      	bne.n	15cf62 <core_spytask+0x13a>
  15cf5a:	4b47      	ldr	r3, [pc, #284]	; (15d078 <core_spytask+0x250>)
  15cf5c:	681b      	ldr	r3, [r3, #0]
  15cf5e:	2b00      	cmp	r3, #0
  15cf60:	d006      	beq.n	15cf70 <core_spytask+0x148>
  15cf62:	2303      	movs	r3, #3
  15cf64:	4033      	ands	r3, r6
  15cf66:	3601      	adds	r6, #1
  15cf68:	2b00      	cmp	r3, #0
  15cf6a:	d101      	bne.n	15cf70 <core_spytask+0x148>
  15cf6c:	f002 fe6c 	bl	15fc48 <gui_redraw>
  15cf70:	1c3b      	adds	r3, r7, #0
  15cf72:	33f0      	adds	r3, #240	; 0xf0
  15cf74:	681b      	ldr	r3, [r3, #0]
  15cf76:	2b02      	cmp	r3, #2
  15cf78:	d021      	beq.n	15cfbe <core_spytask+0x196>
  15cf7a:	4c3e      	ldr	r4, [pc, #248]	; (15d074 <core_spytask+0x24c>)
  15cf7c:	6ee3      	ldr	r3, [r4, #108]	; 0x6c
  15cf7e:	2b00      	cmp	r3, #0
  15cf80:	d004      	beq.n	15cf8c <core_spytask+0x164>
  15cf82:	4b3e      	ldr	r3, [pc, #248]	; (15d07c <core_spytask+0x254>)
  15cf84:	681b      	ldr	r3, [r3, #0]
  15cf86:	695b      	ldr	r3, [r3, #20]
  15cf88:	f000 f889 	bl	15d09e <ftell+0xe>
  15cf8c:	4b38      	ldr	r3, [pc, #224]	; (15d070 <core_spytask+0x248>)
  15cf8e:	33fc      	adds	r3, #252	; 0xfc
  15cf90:	685a      	ldr	r2, [r3, #4]
  15cf92:	2a00      	cmp	r2, #0
  15cf94:	d102      	bne.n	15cf9c <core_spytask+0x174>
  15cf96:	689b      	ldr	r3, [r3, #8]
  15cf98:	2b00      	cmp	r3, #0
  15cf9a:	d010      	beq.n	15cfbe <core_spytask+0x196>
  15cf9c:	4b38      	ldr	r3, [pc, #224]	; (15d080 <core_spytask+0x258>)
  15cf9e:	58e3      	ldr	r3, [r4, r3]
  15cfa0:	2b00      	cmp	r3, #0
  15cfa2:	d00c      	beq.n	15cfbe <core_spytask+0x196>
  15cfa4:	4b37      	ldr	r3, [pc, #220]	; (15d084 <core_spytask+0x25c>)
  15cfa6:	58e3      	ldr	r3, [r4, r3]
  15cfa8:	2b00      	cmp	r3, #0
  15cfaa:	d008      	beq.n	15cfbe <core_spytask+0x196>
  15cfac:	4b21      	ldr	r3, [pc, #132]	; (15d034 <core_spytask+0x20c>)
  15cfae:	6b1b      	ldr	r3, [r3, #48]	; 0x30
  15cfb0:	2b00      	cmp	r3, #0
  15cfb2:	d004      	beq.n	15cfbe <core_spytask+0x196>
  15cfb4:	4b34      	ldr	r3, [pc, #208]	; (15d088 <core_spytask+0x260>)
  15cfb6:	681b      	ldr	r3, [r3, #0]
  15cfb8:	695b      	ldr	r3, [r3, #20]
  15cfba:	f000 f870 	bl	15d09e <ftell+0xe>
  15cfbe:	4b2c      	ldr	r3, [pc, #176]	; (15d070 <core_spytask+0x248>)
  15cfc0:	1c1c      	adds	r4, r3, #0
  15cfc2:	34f0      	adds	r4, #240	; 0xf0
  15cfc4:	6822      	ldr	r2, [r4, #0]
  15cfc6:	2a02      	cmp	r2, #2
  15cfc8:	d105      	bne.n	15cfd6 <core_spytask+0x1ae>
  15cfca:	f006 f943 	bl	163254 <shooting_in_progress>
  15cfce:	2800      	cmp	r0, #0
  15cfd0:	d101      	bne.n	15cfd6 <core_spytask+0x1ae>
  15cfd2:	2303      	movs	r3, #3
  15cfd4:	6023      	str	r3, [r4, #0]
  15cfd6:	4b26      	ldr	r3, [pc, #152]	; (15d070 <core_spytask+0x248>)
  15cfd8:	33fc      	adds	r3, #252	; 0xfc
  15cfda:	6ada      	ldr	r2, [r3, #44]	; 0x2c
  15cfdc:	2a00      	cmp	r2, #0
  15cfde:	d020      	beq.n	15d022 <core_spytask+0x1fa>
  15cfe0:	6b9a      	ldr	r2, [r3, #56]	; 0x38
  15cfe2:	9202      	str	r2, [sp, #8]
  15cfe4:	6bda      	ldr	r2, [r3, #60]	; 0x3c
  15cfe6:	9203      	str	r2, [sp, #12]
  15cfe8:	6c1a      	ldr	r2, [r3, #64]	; 0x40
  15cfea:	9204      	str	r2, [sp, #16]
  15cfec:	6c99      	ldr	r1, [r3, #72]	; 0x48
  15cfee:	2900      	cmp	r1, #0
  15cff0:	d003      	beq.n	15cffa <core_spytask+0x1d2>
  15cff2:	6c58      	ldr	r0, [r3, #68]	; 0x44
  15cff4:	f012 fb00 	bl	16f5f8 <____udivsi3_from_thumb>
  15cff8:	1c01      	adds	r1, r0, #0
  15cffa:	4c0e      	ldr	r4, [pc, #56]	; (15d034 <core_spytask+0x20c>)
  15cffc:	3434      	adds	r4, #52	; 0x34
  15cffe:	9b04      	ldr	r3, [sp, #16]
  15d000:	9300      	str	r3, [sp, #0]
  15d002:	9101      	str	r1, [sp, #4]
  15d004:	1c20      	adds	r0, r4, #0
  15d006:	4921      	ldr	r1, [pc, #132]	; (15d08c <core_spytask+0x264>)
  15d008:	9a02      	ldr	r2, [sp, #8]
  15d00a:	9b03      	ldr	r3, [sp, #12]
  15d00c:	f012 f9ec 	bl	16f3e8 <__sprintf_from_thumb>
  15d010:	23a0      	movs	r3, #160	; 0xa0
  15d012:	009b      	lsls	r3, r3, #2
  15d014:	4a17      	ldr	r2, [pc, #92]	; (15d074 <core_spytask+0x24c>)
  15d016:	5ad3      	ldrh	r3, [r2, r3]
  15d018:	2001      	movs	r0, #1
  15d01a:	2100      	movs	r1, #0
  15d01c:	1c22      	adds	r2, r4, #0
  15d01e:	f000 fd67 	bl	15daf0 <draw_txt_string>
  15d022:	f00e fb37 	bl	16b694 <module_tick_unloader>
  15d026:	2014      	movs	r0, #20
  15d028:	f012 fc0e 	bl	16f848 <__msleep_from_thumb>
  15d02c:	2201      	movs	r2, #1
  15d02e:	4b01      	ldr	r3, [pc, #4]	; (15d034 <core_spytask+0x20c>)
  15d030:	631a      	str	r2, [r3, #48]	; 0x30
  15d032:	e772      	b.n	15cf1a <core_spytask+0xf2>
  15d034:	0017c360 	.word	0x0017c360
  15d038:	00000191 	.word	0x00000191
  15d03c:	001733f8 	.word	0x001733f8
  15d040:	001733ff 	.word	0x001733ff
  15d044:	0017340c 	.word	0x0017340c
  15d048:	0017341b 	.word	0x0017341b
  15d04c:	0017342a 	.word	0x0017342a
  15d050:	00173436 	.word	0x00173436
  15d054:	00173443 	.word	0x00173443
  15d058:	00173452 	.word	0x00173452
  15d05c:	00173465 	.word	0x00173465
  15d060:	00173472 	.word	0x00173472
  15d064:	00173480 	.word	0x00173480
  15d068:	0017348c 	.word	0x0017348c
  15d06c:	00173498 	.word	0x00173498
  15d070:	0017805c 	.word	0x0017805c
  15d074:	001766e4 	.word	0x001766e4
  15d078:	00002720 	.word	0x00002720
  15d07c:	0017c000 	.word	0x0017c000
  15d080:	00000734 	.word	0x00000734
  15d084:	0000072c 	.word	0x0000072c
  15d088:	0017c050 	.word	0x0017c050
  15d08c:	001734a4 	.word	0x001734a4

0015d090 <ftell>:
  15d090:	2800      	cmp	r0, #0
  15d092:	d001      	beq.n	15d098 <ftell+0x8>
  15d094:	68c0      	ldr	r0, [r0, #12]
  15d096:	e001      	b.n	15d09c <ftell+0xc>
  15d098:	2001      	movs	r0, #1
  15d09a:	4240      	negs	r0, r0
  15d09c:	4770      	bx	lr
  15d09e:	4718      	bx	r3

0015d0a0 <draw_pixel_std>:
  15d0a0:	4b03      	ldr	r3, [pc, #12]	; (15d0b0 <draw_pixel_std+0x10>)
  15d0a2:	681a      	ldr	r2, [r3, #0]
  15d0a4:	0609      	lsls	r1, r1, #24
  15d0a6:	0e09      	lsrs	r1, r1, #24
  15d0a8:	685b      	ldr	r3, [r3, #4]
  15d0aa:	5419      	strb	r1, [r3, r0]
  15d0ac:	5411      	strb	r1, [r2, r0]
  15d0ae:	4770      	bx	lr
  15d0b0:	0017c3c8 	.word	0x0017c3c8

0015d0b4 <normalise>:
  15d0b4:	b510      	push	{r4, lr}
  15d0b6:	9c02      	ldr	r4, [sp, #8]
  15d0b8:	4299      	cmp	r1, r3
  15d0ba:	dd02      	ble.n	15d0c2 <normalise+0xe>
  15d0bc:	6081      	str	r1, [r0, #8]
  15d0be:	6003      	str	r3, [r0, #0]
  15d0c0:	e001      	b.n	15d0c6 <normalise+0x12>
  15d0c2:	6001      	str	r1, [r0, #0]
  15d0c4:	6083      	str	r3, [r0, #8]
  15d0c6:	42a2      	cmp	r2, r4
  15d0c8:	dd02      	ble.n	15d0d0 <normalise+0x1c>
  15d0ca:	60c2      	str	r2, [r0, #12]
  15d0cc:	6044      	str	r4, [r0, #4]
  15d0ce:	e001      	b.n	15d0d4 <normalise+0x20>
  15d0d0:	6042      	str	r2, [r0, #4]
  15d0d2:	60c4      	str	r4, [r0, #12]
  15d0d4:	6882      	ldr	r2, [r0, #8]
  15d0d6:	2300      	movs	r3, #0
  15d0d8:	429a      	cmp	r2, r3
  15d0da:	db0d      	blt.n	15d0f8 <normalise+0x44>
  15d0dc:	68c2      	ldr	r2, [r0, #12]
  15d0de:	429a      	cmp	r2, r3
  15d0e0:	db0a      	blt.n	15d0f8 <normalise+0x44>
  15d0e2:	4a07      	ldr	r2, [pc, #28]	; (15d100 <normalise+0x4c>)
  15d0e4:	6804      	ldr	r4, [r0, #0]
  15d0e6:	6851      	ldr	r1, [r2, #4]
  15d0e8:	428c      	cmp	r4, r1
  15d0ea:	da05      	bge.n	15d0f8 <normalise+0x44>
  15d0ec:	2301      	movs	r3, #1
  15d0ee:	6841      	ldr	r1, [r0, #4]
  15d0f0:	6892      	ldr	r2, [r2, #8]
  15d0f2:	4291      	cmp	r1, r2
  15d0f4:	db00      	blt.n	15d0f8 <normalise+0x44>
  15d0f6:	2300      	movs	r3, #0
  15d0f8:	1c18      	adds	r0, r3, #0
  15d0fa:	bc10      	pop	{r4}
  15d0fc:	bc02      	pop	{r1}
  15d0fe:	4708      	bx	r1
  15d100:	001781b0 	.word	0x001781b0

0015d104 <shrink>:
  15d104:	6803      	ldr	r3, [r0, #0]
  15d106:	3301      	adds	r3, #1
  15d108:	6003      	str	r3, [r0, #0]
  15d10a:	6883      	ldr	r3, [r0, #8]
  15d10c:	3b01      	subs	r3, #1
  15d10e:	6083      	str	r3, [r0, #8]
  15d110:	6843      	ldr	r3, [r0, #4]
  15d112:	3301      	adds	r3, #1
  15d114:	6043      	str	r3, [r0, #4]
  15d116:	68c3      	ldr	r3, [r0, #12]
  15d118:	3b01      	subs	r3, #1
  15d11a:	60c3      	str	r3, [r0, #12]
  15d11c:	4770      	bx	lr

0015d11e <shift>:
  15d11e:	6803      	ldr	r3, [r0, #0]
  15d120:	3301      	adds	r3, #1
  15d122:	6003      	str	r3, [r0, #0]
  15d124:	6883      	ldr	r3, [r0, #8]
  15d126:	3301      	adds	r3, #1
  15d128:	6083      	str	r3, [r0, #8]
  15d12a:	6843      	ldr	r3, [r0, #4]
  15d12c:	3301      	adds	r3, #1
  15d12e:	6043      	str	r3, [r0, #4]
  15d130:	68c3      	ldr	r3, [r0, #12]
  15d132:	3301      	adds	r3, #1
  15d134:	60c3      	str	r3, [r0, #12]
  15d136:	4770      	bx	lr

0015d138 <draw_set_draw_proc>:
  15d138:	2800      	cmp	r0, #0
  15d13a:	d100      	bne.n	15d13e <draw_set_draw_proc+0x6>
  15d13c:	4801      	ldr	r0, [pc, #4]	; (15d144 <draw_set_draw_proc+0xc>)
  15d13e:	4b02      	ldr	r3, [pc, #8]	; (15d148 <draw_set_draw_proc+0x10>)
  15d140:	6018      	str	r0, [r3, #0]
  15d142:	4770      	bx	lr
  15d144:	0015d0a1 	.word	0x0015d0a1
  15d148:	0017d79c 	.word	0x0017d79c

0015d14c <draw_set_guard>:
  15d14c:	4a03      	ldr	r2, [pc, #12]	; (15d15c <draw_set_guard+0x10>)
  15d14e:	6811      	ldr	r1, [r2, #0]
  15d150:	231d      	movs	r3, #29
  15d152:	700b      	strb	r3, [r1, #0]
  15d154:	6852      	ldr	r2, [r2, #4]
  15d156:	7013      	strb	r3, [r2, #0]
  15d158:	4770      	bx	lr
  15d15a:	46c0      	nop			; (mov r8, r8)
  15d15c:	0017c3c8 	.word	0x0017c3c8

0015d160 <draw_test_guard>:
  15d160:	4b05      	ldr	r3, [pc, #20]	; (15d178 <draw_test_guard+0x18>)
  15d162:	681a      	ldr	r2, [r3, #0]
  15d164:	7812      	ldrb	r2, [r2, #0]
  15d166:	2000      	movs	r0, #0
  15d168:	2a1d      	cmp	r2, #29
  15d16a:	d104      	bne.n	15d176 <draw_test_guard+0x16>
  15d16c:	685b      	ldr	r3, [r3, #4]
  15d16e:	7818      	ldrb	r0, [r3, #0]
  15d170:	381d      	subs	r0, #29
  15d172:	4243      	negs	r3, r0
  15d174:	4158      	adcs	r0, r3
  15d176:	4770      	bx	lr
  15d178:	0017c3c8 	.word	0x0017c3c8

0015d17c <draw_init>:
  15d17c:	b500      	push	{lr}
  15d17e:	f012 f95f 	bl	16f440 <__vid_get_bitmap_fb_from_thumb>
  15d182:	4b06      	ldr	r3, [pc, #24]	; (15d19c <draw_init+0x20>)
  15d184:	6018      	str	r0, [r3, #0]
  15d186:	4a06      	ldr	r2, [pc, #24]	; (15d1a0 <draw_init+0x24>)
  15d188:	69d2      	ldr	r2, [r2, #28]
  15d18a:	1880      	adds	r0, r0, r2
  15d18c:	6058      	str	r0, [r3, #4]
  15d18e:	2000      	movs	r0, #0
  15d190:	f7ff ffd2 	bl	15d138 <draw_set_draw_proc>
  15d194:	f7ff ffda 	bl	15d14c <draw_set_guard>
  15d198:	bc01      	pop	{r0}
  15d19a:	4700      	bx	r0
  15d19c:	0017c3c8 	.word	0x0017c3c8
  15d1a0:	001781b0 	.word	0x001781b0

0015d1a4 <draw_restore>:
  15d1a4:	b500      	push	{lr}
  15d1a6:	f012 fa2f 	bl	16f608 <__vid_bitmap_refresh_from_thumb>
  15d1aa:	f7ff ffcf 	bl	15d14c <draw_set_guard>
  15d1ae:	bc01      	pop	{r0}
  15d1b0:	4700      	bx	r0

0015d1b2 <draw_pixel>:
  15d1b2:	b570      	push	{r4, r5, r6, lr}
  15d1b4:	0416      	lsls	r6, r2, #16
  15d1b6:	0c36      	lsrs	r6, r6, #16
  15d1b8:	2900      	cmp	r1, #0
  15d1ba:	db1a      	blt.n	15d1f2 <draw_pixel+0x40>
  15d1bc:	2800      	cmp	r0, #0
  15d1be:	db18      	blt.n	15d1f2 <draw_pixel+0x40>
  15d1c0:	4b0d      	ldr	r3, [pc, #52]	; (15d1f8 <draw_pixel+0x46>)
  15d1c2:	685a      	ldr	r2, [r3, #4]
  15d1c4:	4290      	cmp	r0, r2
  15d1c6:	da14      	bge.n	15d1f2 <draw_pixel+0x40>
  15d1c8:	689a      	ldr	r2, [r3, #8]
  15d1ca:	4291      	cmp	r1, r2
  15d1cc:	da11      	bge.n	15d1f2 <draw_pixel+0x40>
  15d1ce:	1c0a      	adds	r2, r1, #0
  15d1d0:	4302      	orrs	r2, r0
  15d1d2:	d00e      	beq.n	15d1f2 <draw_pixel+0x40>
  15d1d4:	695c      	ldr	r4, [r3, #20]
  15d1d6:	434c      	muls	r4, r1
  15d1d8:	0040      	lsls	r0, r0, #1
  15d1da:	1824      	adds	r4, r4, r0
  15d1dc:	4d07      	ldr	r5, [pc, #28]	; (15d1fc <draw_pixel+0x4a>)
  15d1de:	682b      	ldr	r3, [r5, #0]
  15d1e0:	1c20      	adds	r0, r4, #0
  15d1e2:	1c31      	adds	r1, r6, #0
  15d1e4:	f000 fe5c 	bl	15dea0 <draw_get_icon_colors+0x50>
  15d1e8:	1c60      	adds	r0, r4, #1
  15d1ea:	682b      	ldr	r3, [r5, #0]
  15d1ec:	1c31      	adds	r1, r6, #0
  15d1ee:	f000 fe57 	bl	15dea0 <draw_get_icon_colors+0x50>
  15d1f2:	bc70      	pop	{r4, r5, r6}
  15d1f4:	bc01      	pop	{r0}
  15d1f6:	4700      	bx	r0
  15d1f8:	001781b0 	.word	0x001781b0
  15d1fc:	0017d79c 	.word	0x0017d79c

0015d200 <draw_get_pixel>:
  15d200:	b510      	push	{r4, lr}
  15d202:	1c03      	adds	r3, r0, #0
  15d204:	2900      	cmp	r1, #0
  15d206:	db10      	blt.n	15d22a <draw_get_pixel+0x2a>
  15d208:	0fc0      	lsrs	r0, r0, #31
  15d20a:	d10e      	bne.n	15d22a <draw_get_pixel+0x2a>
  15d20c:	4a09      	ldr	r2, [pc, #36]	; (15d234 <draw_get_pixel+0x34>)
  15d20e:	6854      	ldr	r4, [r2, #4]
  15d210:	42a3      	cmp	r3, r4
  15d212:	da0b      	bge.n	15d22c <draw_get_pixel+0x2c>
  15d214:	6894      	ldr	r4, [r2, #8]
  15d216:	42a1      	cmp	r1, r4
  15d218:	da08      	bge.n	15d22c <draw_get_pixel+0x2c>
  15d21a:	6952      	ldr	r2, [r2, #20]
  15d21c:	4351      	muls	r1, r2
  15d21e:	005b      	lsls	r3, r3, #1
  15d220:	4a05      	ldr	r2, [pc, #20]	; (15d238 <draw_get_pixel+0x38>)
  15d222:	6812      	ldr	r2, [r2, #0]
  15d224:	1851      	adds	r1, r2, r1
  15d226:	5cc8      	ldrb	r0, [r1, r3]
  15d228:	e000      	b.n	15d22c <draw_get_pixel+0x2c>
  15d22a:	2000      	movs	r0, #0
  15d22c:	bc10      	pop	{r4}
  15d22e:	bc02      	pop	{r1}
  15d230:	4708      	bx	r1
  15d232:	46c0      	nop			; (mov r8, r8)
  15d234:	001781b0 	.word	0x001781b0
  15d238:	0017c3c8 	.word	0x0017c3c8

0015d23c <draw_line>:
  15d23c:	b5f0      	push	{r4, r5, r6, r7, lr}
  15d23e:	b086      	sub	sp, #24
  15d240:	1c14      	adds	r4, r2, #0
  15d242:	9f0b      	ldr	r7, [sp, #44]	; 0x2c
  15d244:	043f      	lsls	r7, r7, #16
  15d246:	0c3f      	lsrs	r7, r7, #16
  15d248:	1a5d      	subs	r5, r3, r1
  15d24a:	17ea      	asrs	r2, r5, #31
  15d24c:	18ad      	adds	r5, r5, r2
  15d24e:	4055      	eors	r5, r2
  15d250:	1a22      	subs	r2, r4, r0
  15d252:	17d6      	asrs	r6, r2, #31
  15d254:	1992      	adds	r2, r2, r6
  15d256:	4072      	eors	r2, r6
  15d258:	4295      	cmp	r5, r2
  15d25a:	dd08      	ble.n	15d26e <draw_line+0x32>
  15d25c:	2501      	movs	r5, #1
  15d25e:	9500      	str	r5, [sp, #0]
  15d260:	4048      	eors	r0, r1
  15d262:	4041      	eors	r1, r0
  15d264:	4048      	eors	r0, r1
  15d266:	405c      	eors	r4, r3
  15d268:	4063      	eors	r3, r4
  15d26a:	405c      	eors	r4, r3
  15d26c:	e001      	b.n	15d272 <draw_line+0x36>
  15d26e:	2600      	movs	r6, #0
  15d270:	9600      	str	r6, [sp, #0]
  15d272:	42a0      	cmp	r0, r4
  15d274:	dd05      	ble.n	15d282 <draw_line+0x46>
  15d276:	4060      	eors	r0, r4
  15d278:	4044      	eors	r4, r0
  15d27a:	4060      	eors	r0, r4
  15d27c:	4059      	eors	r1, r3
  15d27e:	404b      	eors	r3, r1
  15d280:	4059      	eors	r1, r3
  15d282:	1a25      	subs	r5, r4, r0
  15d284:	9501      	str	r5, [sp, #4]
  15d286:	1a5a      	subs	r2, r3, r1
  15d288:	17d5      	asrs	r5, r2, #31
  15d28a:	1956      	adds	r6, r2, r5
  15d28c:	406e      	eors	r6, r5
  15d28e:	9605      	str	r6, [sp, #20]
  15d290:	17cd      	asrs	r5, r1, #31
  15d292:	0fda      	lsrs	r2, r3, #31
  15d294:	4299      	cmp	r1, r3
  15d296:	416a      	adcs	r2, r5
  15d298:	4252      	negs	r2, r2
  15d29a:	2301      	movs	r3, #1
  15d29c:	4313      	orrs	r3, r2
  15d29e:	9304      	str	r3, [sp, #16]
  15d2a0:	1c05      	adds	r5, r0, #0
  15d2a2:	9103      	str	r1, [sp, #12]
  15d2a4:	2600      	movs	r6, #0
  15d2a6:	9702      	str	r7, [sp, #8]
  15d2a8:	1c0f      	adds	r7, r1, #0
  15d2aa:	e014      	b.n	15d2d6 <draw_line+0x9a>
  15d2ac:	9a00      	ldr	r2, [sp, #0]
  15d2ae:	2a00      	cmp	r2, #0
  15d2b0:	d002      	beq.n	15d2b8 <draw_line+0x7c>
  15d2b2:	1c38      	adds	r0, r7, #0
  15d2b4:	1c29      	adds	r1, r5, #0
  15d2b6:	e001      	b.n	15d2bc <draw_line+0x80>
  15d2b8:	1c28      	adds	r0, r5, #0
  15d2ba:	1c39      	adds	r1, r7, #0
  15d2bc:	9a02      	ldr	r2, [sp, #8]
  15d2be:	f7ff ff78 	bl	15d1b2 <draw_pixel>
  15d2c2:	9b05      	ldr	r3, [sp, #20]
  15d2c4:	18f6      	adds	r6, r6, r3
  15d2c6:	0073      	lsls	r3, r6, #1
  15d2c8:	9a01      	ldr	r2, [sp, #4]
  15d2ca:	4293      	cmp	r3, r2
  15d2cc:	db02      	blt.n	15d2d4 <draw_line+0x98>
  15d2ce:	9b04      	ldr	r3, [sp, #16]
  15d2d0:	18ff      	adds	r7, r7, r3
  15d2d2:	1ab6      	subs	r6, r6, r2
  15d2d4:	3501      	adds	r5, #1
  15d2d6:	42a5      	cmp	r5, r4
  15d2d8:	dde8      	ble.n	15d2ac <draw_line+0x70>
  15d2da:	b006      	add	sp, #24
  15d2dc:	bcf0      	pop	{r4, r5, r6, r7}
  15d2de:	bc01      	pop	{r0}
  15d2e0:	4700      	bx	r0

0015d2e2 <draw_hline>:
  15d2e2:	b5f0      	push	{r4, r5, r6, r7, lr}
  15d2e4:	041e      	lsls	r6, r3, #16
  15d2e6:	0c36      	lsrs	r6, r6, #16
  15d2e8:	2900      	cmp	r1, #0
  15d2ea:	db1e      	blt.n	15d32a <draw_hline+0x48>
  15d2ec:	4c10      	ldr	r4, [pc, #64]	; (15d330 <draw_hline+0x4e>)
  15d2ee:	6863      	ldr	r3, [r4, #4]
  15d2f0:	4298      	cmp	r0, r3
  15d2f2:	da1a      	bge.n	15d32a <draw_hline+0x48>
  15d2f4:	68a5      	ldr	r5, [r4, #8]
  15d2f6:	42a9      	cmp	r1, r5
  15d2f8:	da17      	bge.n	15d32a <draw_hline+0x48>
  15d2fa:	2800      	cmp	r0, #0
  15d2fc:	da01      	bge.n	15d302 <draw_hline+0x20>
  15d2fe:	1812      	adds	r2, r2, r0
  15d300:	2000      	movs	r0, #0
  15d302:	1885      	adds	r5, r0, r2
  15d304:	429d      	cmp	r5, r3
  15d306:	dd00      	ble.n	15d30a <draw_hline+0x28>
  15d308:	1a1a      	subs	r2, r3, r0
  15d30a:	6967      	ldr	r7, [r4, #20]
  15d30c:	434f      	muls	r7, r1
  15d30e:	0040      	lsls	r0, r0, #1
  15d310:	183f      	adds	r7, r7, r0
  15d312:	0054      	lsls	r4, r2, #1
  15d314:	4d07      	ldr	r5, [pc, #28]	; (15d334 <draw_hline+0x52>)
  15d316:	e006      	b.n	15d326 <draw_hline+0x44>
  15d318:	682b      	ldr	r3, [r5, #0]
  15d31a:	1c38      	adds	r0, r7, #0
  15d31c:	1c31      	adds	r1, r6, #0
  15d31e:	f000 fdbf 	bl	15dea0 <draw_get_icon_colors+0x50>
  15d322:	3c01      	subs	r4, #1
  15d324:	3701      	adds	r7, #1
  15d326:	2c00      	cmp	r4, #0
  15d328:	dcf6      	bgt.n	15d318 <draw_hline+0x36>
  15d32a:	bcf0      	pop	{r4, r5, r6, r7}
  15d32c:	bc01      	pop	{r0}
  15d32e:	4700      	bx	r0
  15d330:	001781b0 	.word	0x001781b0
  15d334:	0017d79c 	.word	0x0017d79c

0015d338 <fill_rect>:
  15d338:	b5f0      	push	{r4, r5, r6, r7, lr}
  15d33a:	b085      	sub	sp, #20
  15d33c:	1c06      	adds	r6, r0, #0
  15d33e:	9001      	str	r0, [sp, #4]
  15d340:	1c0c      	adds	r4, r1, #0
  15d342:	9102      	str	r1, [sp, #8]
  15d344:	1c11      	adds	r1, r2, #0
  15d346:	9203      	str	r2, [sp, #12]
  15d348:	1c1d      	adds	r5, r3, #0
  15d34a:	9304      	str	r3, [sp, #16]
  15d34c:	9f0a      	ldr	r7, [sp, #40]	; 0x28
  15d34e:	043f      	lsls	r7, r7, #16
  15d350:	0c3f      	lsrs	r7, r7, #16
  15d352:	43c3      	mvns	r3, r0
  15d354:	17db      	asrs	r3, r3, #31
  15d356:	401e      	ands	r6, r3
  15d358:	43e3      	mvns	r3, r4
  15d35a:	17db      	asrs	r3, r3, #31
  15d35c:	401c      	ands	r4, r3
  15d35e:	4a0d      	ldr	r2, [pc, #52]	; (15d394 <fill_rect+0x5c>)
  15d360:	6853      	ldr	r3, [r2, #4]
  15d362:	4299      	cmp	r1, r3
  15d364:	db00      	blt.n	15d368 <fill_rect+0x30>
  15d366:	1e59      	subs	r1, r3, #1
  15d368:	6893      	ldr	r3, [r2, #8]
  15d36a:	429d      	cmp	r5, r3
  15d36c:	db00      	blt.n	15d370 <fill_rect+0x38>
  15d36e:	1e5d      	subs	r5, r3, #1
  15d370:	0a3f      	lsrs	r7, r7, #8
  15d372:	1b89      	subs	r1, r1, r6
  15d374:	3101      	adds	r1, #1
  15d376:	9100      	str	r1, [sp, #0]
  15d378:	e006      	b.n	15d388 <fill_rect+0x50>
  15d37a:	1c30      	adds	r0, r6, #0
  15d37c:	1c21      	adds	r1, r4, #0
  15d37e:	9a00      	ldr	r2, [sp, #0]
  15d380:	1c3b      	adds	r3, r7, #0
  15d382:	f7ff ffae 	bl	15d2e2 <draw_hline>
  15d386:	3401      	adds	r4, #1
  15d388:	42ac      	cmp	r4, r5
  15d38a:	ddf6      	ble.n	15d37a <fill_rect+0x42>
  15d38c:	b005      	add	sp, #20
  15d38e:	bcf0      	pop	{r4, r5, r6, r7}
  15d390:	bc01      	pop	{r0}
  15d392:	4700      	bx	r0
  15d394:	001781b0 	.word	0x001781b0

0015d398 <draw_vline>:
  15d398:	b5f0      	push	{r4, r5, r6, r7, lr}
  15d39a:	1c07      	adds	r7, r0, #0
  15d39c:	1c0c      	adds	r4, r1, #0
  15d39e:	1c15      	adds	r5, r2, #0
  15d3a0:	041e      	lsls	r6, r3, #16
  15d3a2:	0c36      	lsrs	r6, r6, #16
  15d3a4:	2800      	cmp	r0, #0
  15d3a6:	db18      	blt.n	15d3da <draw_vline+0x42>
  15d3a8:	4b0d      	ldr	r3, [pc, #52]	; (15d3e0 <draw_vline+0x48>)
  15d3aa:	685a      	ldr	r2, [r3, #4]
  15d3ac:	4290      	cmp	r0, r2
  15d3ae:	da14      	bge.n	15d3da <draw_vline+0x42>
  15d3b0:	689b      	ldr	r3, [r3, #8]
  15d3b2:	4299      	cmp	r1, r3
  15d3b4:	da11      	bge.n	15d3da <draw_vline+0x42>
  15d3b6:	2900      	cmp	r1, #0
  15d3b8:	da01      	bge.n	15d3be <draw_vline+0x26>
  15d3ba:	186d      	adds	r5, r5, r1
  15d3bc:	2400      	movs	r4, #0
  15d3be:	1962      	adds	r2, r4, r5
  15d3c0:	429a      	cmp	r2, r3
  15d3c2:	dd08      	ble.n	15d3d6 <draw_vline+0x3e>
  15d3c4:	1b1d      	subs	r5, r3, r4
  15d3c6:	e006      	b.n	15d3d6 <draw_vline+0x3e>
  15d3c8:	1c38      	adds	r0, r7, #0
  15d3ca:	1c21      	adds	r1, r4, #0
  15d3cc:	1c32      	adds	r2, r6, #0
  15d3ce:	f7ff fef0 	bl	15d1b2 <draw_pixel>
  15d3d2:	3d01      	subs	r5, #1
  15d3d4:	3401      	adds	r4, #1
  15d3d6:	2d00      	cmp	r5, #0
  15d3d8:	dcf6      	bgt.n	15d3c8 <draw_vline+0x30>
  15d3da:	bcf0      	pop	{r4, r5, r6, r7}
  15d3dc:	bc01      	pop	{r0}
  15d3de:	4700      	bx	r0
  15d3e0:	001781b0 	.word	0x001781b0

0015d3e4 <draw_rectangle>:
  15d3e4:	b5f0      	push	{r4, r5, r6, r7, lr}
  15d3e6:	b088      	sub	sp, #32
  15d3e8:	1c06      	adds	r6, r0, #0
  15d3ea:	9004      	str	r0, [sp, #16]
  15d3ec:	9105      	str	r1, [sp, #20]
  15d3ee:	1c14      	adds	r4, r2, #0
  15d3f0:	9206      	str	r2, [sp, #24]
  15d3f2:	1c1a      	adds	r2, r3, #0
  15d3f4:	9307      	str	r3, [sp, #28]
  15d3f6:	9f0e      	ldr	r7, [sp, #56]	; 0x38
  15d3f8:	9d0d      	ldr	r5, [sp, #52]	; 0x34
  15d3fa:	042d      	lsls	r5, r5, #16
  15d3fc:	0c2d      	lsrs	r5, r5, #16
  15d3fe:	9101      	str	r1, [sp, #4]
  15d400:	9402      	str	r4, [sp, #8]
  15d402:	9303      	str	r3, [sp, #12]
  15d404:	007b      	lsls	r3, r7, #1
  15d406:	18cb      	adds	r3, r1, r3
  15d408:	9300      	str	r3, [sp, #0]
  15d40a:	1a54      	subs	r4, r2, r1
  15d40c:	00bb      	lsls	r3, r7, #2
  15d40e:	1ae4      	subs	r4, r4, r3
  15d410:	3401      	adds	r4, #1
  15d412:	1c30      	adds	r0, r6, #0
  15d414:	9900      	ldr	r1, [sp, #0]
  15d416:	1c22      	adds	r2, r4, #0
  15d418:	1c2b      	adds	r3, r5, #0
  15d41a:	f7ff ffbd 	bl	15d398 <draw_vline>
  15d41e:	9802      	ldr	r0, [sp, #8]
  15d420:	9900      	ldr	r1, [sp, #0]
  15d422:	1c22      	adds	r2, r4, #0
  15d424:	1c2b      	adds	r3, r5, #0
  15d426:	f7ff ffb7 	bl	15d398 <draw_vline>
  15d42a:	1c73      	adds	r3, r6, #1
  15d42c:	19db      	adds	r3, r3, r7
  15d42e:	9300      	str	r3, [sp, #0]
  15d430:	9a02      	ldr	r2, [sp, #8]
  15d432:	1b94      	subs	r4, r2, r6
  15d434:	007f      	lsls	r7, r7, #1
  15d436:	1be4      	subs	r4, r4, r7
  15d438:	3c01      	subs	r4, #1
  15d43a:	1c18      	adds	r0, r3, #0
  15d43c:	9901      	ldr	r1, [sp, #4]
  15d43e:	1c22      	adds	r2, r4, #0
  15d440:	1c2b      	adds	r3, r5, #0
  15d442:	f7ff ff4e 	bl	15d2e2 <draw_hline>
  15d446:	9800      	ldr	r0, [sp, #0]
  15d448:	9903      	ldr	r1, [sp, #12]
  15d44a:	1c22      	adds	r2, r4, #0
  15d44c:	1c2b      	adds	r3, r5, #0
  15d44e:	f7ff ff48 	bl	15d2e2 <draw_hline>
  15d452:	b008      	add	sp, #32
  15d454:	bcf0      	pop	{r4, r5, r6, r7}
  15d456:	bc01      	pop	{r0}
  15d458:	4700      	bx	r0

0015d45a <draw_filled_rectangle_thick>:
  15d45a:	b5f0      	push	{r4, r5, r6, r7, lr}
  15d45c:	b088      	sub	sp, #32
  15d45e:	ac04      	add	r4, sp, #16
  15d460:	9004      	str	r0, [sp, #16]
  15d462:	6061      	str	r1, [r4, #4]
  15d464:	9202      	str	r2, [sp, #8]
  15d466:	60a2      	str	r2, [r4, #8]
  15d468:	9303      	str	r3, [sp, #12]
  15d46a:	60e3      	str	r3, [r4, #12]
  15d46c:	9e0d      	ldr	r6, [sp, #52]	; 0x34
  15d46e:	0436      	lsls	r6, r6, #16
  15d470:	0c36      	lsrs	r6, r6, #16
  15d472:	0635      	lsls	r5, r6, #24
  15d474:	0e2d      	lsrs	r5, r5, #24
  15d476:	9500      	str	r5, [sp, #0]
  15d478:	9b0f      	ldr	r3, [sp, #60]	; 0x3c
  15d47a:	9301      	str	r3, [sp, #4]
  15d47c:	9b03      	ldr	r3, [sp, #12]
  15d47e:	f7ff ffb1 	bl	15d3e4 <draw_rectangle>
  15d482:	2701      	movs	r7, #1
  15d484:	e00b      	b.n	15d49e <draw_filled_rectangle_thick+0x44>
  15d486:	f7ff fe3d 	bl	15d104 <shrink>
  15d48a:	9500      	str	r5, [sp, #0]
  15d48c:	2300      	movs	r3, #0
  15d48e:	9301      	str	r3, [sp, #4]
  15d490:	6820      	ldr	r0, [r4, #0]
  15d492:	6861      	ldr	r1, [r4, #4]
  15d494:	68a2      	ldr	r2, [r4, #8]
  15d496:	68e3      	ldr	r3, [r4, #12]
  15d498:	f7ff ffa4 	bl	15d3e4 <draw_rectangle>
  15d49c:	3701      	adds	r7, #1
  15d49e:	9b0e      	ldr	r3, [sp, #56]	; 0x38
  15d4a0:	1c20      	adds	r0, r4, #0
  15d4a2:	429f      	cmp	r7, r3
  15d4a4:	dbef      	blt.n	15d486 <draw_filled_rectangle_thick+0x2c>
  15d4a6:	f7ff fe2d 	bl	15d104 <shrink>
  15d4aa:	9600      	str	r6, [sp, #0]
  15d4ac:	9804      	ldr	r0, [sp, #16]
  15d4ae:	3404      	adds	r4, #4
  15d4b0:	cc0e      	ldmia	r4!, {r1, r2, r3}
  15d4b2:	f7ff ff41 	bl	15d338 <fill_rect>
  15d4b6:	b008      	add	sp, #32
  15d4b8:	bcf0      	pop	{r4, r5, r6, r7}
  15d4ba:	bc01      	pop	{r0}
  15d4bc:	4700      	bx	r0

0015d4be <draw_rectangle_thick>:
  15d4be:	b5f0      	push	{r4, r5, r6, r7, lr}
  15d4c0:	b087      	sub	sp, #28
  15d4c2:	ac03      	add	r4, sp, #12
  15d4c4:	9003      	str	r0, [sp, #12]
  15d4c6:	6061      	str	r1, [r4, #4]
  15d4c8:	60a2      	str	r2, [r4, #8]
  15d4ca:	9302      	str	r3, [sp, #8]
  15d4cc:	60e3      	str	r3, [r4, #12]
  15d4ce:	9d0c      	ldr	r5, [sp, #48]	; 0x30
  15d4d0:	062d      	lsls	r5, r5, #24
  15d4d2:	0e2d      	lsrs	r5, r5, #24
  15d4d4:	9500      	str	r5, [sp, #0]
  15d4d6:	9b0e      	ldr	r3, [sp, #56]	; 0x38
  15d4d8:	9301      	str	r3, [sp, #4]
  15d4da:	9b02      	ldr	r3, [sp, #8]
  15d4dc:	f7ff ff82 	bl	15d3e4 <draw_rectangle>
  15d4e0:	2601      	movs	r6, #1
  15d4e2:	2700      	movs	r7, #0
  15d4e4:	e00b      	b.n	15d4fe <draw_rectangle_thick+0x40>
  15d4e6:	1c20      	adds	r0, r4, #0
  15d4e8:	f7ff fe0c 	bl	15d104 <shrink>
  15d4ec:	9500      	str	r5, [sp, #0]
  15d4ee:	9701      	str	r7, [sp, #4]
  15d4f0:	6820      	ldr	r0, [r4, #0]
  15d4f2:	6861      	ldr	r1, [r4, #4]
  15d4f4:	68a2      	ldr	r2, [r4, #8]
  15d4f6:	68e3      	ldr	r3, [r4, #12]
  15d4f8:	f7ff ff74 	bl	15d3e4 <draw_rectangle>
  15d4fc:	3601      	adds	r6, #1
  15d4fe:	9b0d      	ldr	r3, [sp, #52]	; 0x34
  15d500:	429e      	cmp	r6, r3
  15d502:	dbf0      	blt.n	15d4e6 <draw_rectangle_thick+0x28>
  15d504:	b007      	add	sp, #28
  15d506:	bcf0      	pop	{r4, r5, r6, r7}
  15d508:	bc01      	pop	{r0}
  15d50a:	4700      	bx	r0

0015d50c <draw_rect>:
  15d50c:	b5f0      	push	{r4, r5, r6, r7, lr}
  15d50e:	b086      	sub	sp, #24
  15d510:	1c05      	adds	r5, r0, #0
  15d512:	1c0e      	adds	r6, r1, #0
  15d514:	1c17      	adds	r7, r2, #0
  15d516:	9c0b      	ldr	r4, [sp, #44]	; 0x2c
  15d518:	0424      	lsls	r4, r4, #16
  15d51a:	0c24      	lsrs	r4, r4, #16
  15d51c:	9300      	str	r3, [sp, #0]
  15d51e:	a802      	add	r0, sp, #8
  15d520:	1c29      	adds	r1, r5, #0
  15d522:	1c32      	adds	r2, r6, #0
  15d524:	1c3b      	adds	r3, r7, #0
  15d526:	f7ff fdc5 	bl	15d0b4 <normalise>
  15d52a:	2800      	cmp	r0, #0
  15d52c:	d00a      	beq.n	15d544 <draw_rect+0x38>
  15d52e:	0624      	lsls	r4, r4, #24
  15d530:	0e24      	lsrs	r4, r4, #24
  15d532:	9400      	str	r4, [sp, #0]
  15d534:	2300      	movs	r3, #0
  15d536:	9301      	str	r3, [sp, #4]
  15d538:	9802      	ldr	r0, [sp, #8]
  15d53a:	9903      	ldr	r1, [sp, #12]
  15d53c:	9a04      	ldr	r2, [sp, #16]
  15d53e:	9b05      	ldr	r3, [sp, #20]
  15d540:	f7ff ff50 	bl	15d3e4 <draw_rectangle>
  15d544:	b006      	add	sp, #24
  15d546:	bcf0      	pop	{r4, r5, r6, r7}
  15d548:	bc01      	pop	{r0}
  15d54a:	4700      	bx	r0

0015d54c <draw_rect_thick>:
  15d54c:	b5f0      	push	{r4, r5, r6, r7, lr}
  15d54e:	b087      	sub	sp, #28
  15d550:	1c05      	adds	r5, r0, #0
  15d552:	1c0e      	adds	r6, r1, #0
  15d554:	1c17      	adds	r7, r2, #0
  15d556:	9c0c      	ldr	r4, [sp, #48]	; 0x30
  15d558:	0424      	lsls	r4, r4, #16
  15d55a:	0c24      	lsrs	r4, r4, #16
  15d55c:	9300      	str	r3, [sp, #0]
  15d55e:	a803      	add	r0, sp, #12
  15d560:	1c29      	adds	r1, r5, #0
  15d562:	1c32      	adds	r2, r6, #0
  15d564:	1c3b      	adds	r3, r7, #0
  15d566:	f7ff fda5 	bl	15d0b4 <normalise>
  15d56a:	2800      	cmp	r0, #0
  15d56c:	d00c      	beq.n	15d588 <draw_rect_thick+0x3c>
  15d56e:	0624      	lsls	r4, r4, #24
  15d570:	0e24      	lsrs	r4, r4, #24
  15d572:	9400      	str	r4, [sp, #0]
  15d574:	9b0d      	ldr	r3, [sp, #52]	; 0x34
  15d576:	9301      	str	r3, [sp, #4]
  15d578:	2300      	movs	r3, #0
  15d57a:	9302      	str	r3, [sp, #8]
  15d57c:	9803      	ldr	r0, [sp, #12]
  15d57e:	9904      	ldr	r1, [sp, #16]
  15d580:	9a05      	ldr	r2, [sp, #20]
  15d582:	9b06      	ldr	r3, [sp, #24]
  15d584:	f7ff ff9b 	bl	15d4be <draw_rectangle_thick>
  15d588:	b007      	add	sp, #28
  15d58a:	bcf0      	pop	{r4, r5, r6, r7}
  15d58c:	bc01      	pop	{r0}
  15d58e:	4700      	bx	r0

0015d590 <draw_rect_shadow>:
  15d590:	b5f0      	push	{r4, r5, r6, r7, lr}
  15d592:	b087      	sub	sp, #28
  15d594:	1c04      	adds	r4, r0, #0
  15d596:	1c0d      	adds	r5, r1, #0
  15d598:	1c16      	adds	r6, r2, #0
  15d59a:	9f0c      	ldr	r7, [sp, #48]	; 0x30
  15d59c:	063f      	lsls	r7, r7, #24
  15d59e:	0e3f      	lsrs	r7, r7, #24
  15d5a0:	aa03      	add	r2, sp, #12
  15d5a2:	9202      	str	r2, [sp, #8]
  15d5a4:	9300      	str	r3, [sp, #0]
  15d5a6:	1c10      	adds	r0, r2, #0
  15d5a8:	1c21      	adds	r1, r4, #0
  15d5aa:	1c2a      	adds	r2, r5, #0
  15d5ac:	1c33      	adds	r3, r6, #0
  15d5ae:	f7ff fd81 	bl	15d0b4 <normalise>
  15d5b2:	2500      	movs	r5, #0
  15d5b4:	42a8      	cmp	r0, r5
  15d5b6:	d10d      	bne.n	15d5d4 <draw_rect_shadow+0x44>
  15d5b8:	e011      	b.n	15d5de <draw_rect_shadow+0x4e>
  15d5ba:	9700      	str	r7, [sp, #0]
  15d5bc:	9601      	str	r6, [sp, #4]
  15d5be:	6820      	ldr	r0, [r4, #0]
  15d5c0:	6861      	ldr	r1, [r4, #4]
  15d5c2:	68a2      	ldr	r2, [r4, #8]
  15d5c4:	68e3      	ldr	r3, [r4, #12]
  15d5c6:	f7ff ff0d 	bl	15d3e4 <draw_rectangle>
  15d5ca:	1c20      	adds	r0, r4, #0
  15d5cc:	f7ff fda7 	bl	15d11e <shift>
  15d5d0:	3501      	adds	r5, #1
  15d5d2:	e001      	b.n	15d5d8 <draw_rect_shadow+0x48>
  15d5d4:	ac03      	add	r4, sp, #12
  15d5d6:	1c2e      	adds	r6, r5, #0
  15d5d8:	9b0d      	ldr	r3, [sp, #52]	; 0x34
  15d5da:	429d      	cmp	r5, r3
  15d5dc:	dbed      	blt.n	15d5ba <draw_rect_shadow+0x2a>
  15d5de:	b007      	add	sp, #28
  15d5e0:	bcf0      	pop	{r4, r5, r6, r7}
  15d5e2:	bc01      	pop	{r0}
  15d5e4:	4700      	bx	r0

0015d5e6 <draw_round_rect>:
  15d5e6:	b5f0      	push	{r4, r5, r6, r7, lr}
  15d5e8:	b086      	sub	sp, #24
  15d5ea:	1c05      	adds	r5, r0, #0
  15d5ec:	1c0e      	adds	r6, r1, #0
  15d5ee:	1c17      	adds	r7, r2, #0
  15d5f0:	9c0b      	ldr	r4, [sp, #44]	; 0x2c
  15d5f2:	0424      	lsls	r4, r4, #16
  15d5f4:	0c24      	lsrs	r4, r4, #16
  15d5f6:	9300      	str	r3, [sp, #0]
  15d5f8:	a802      	add	r0, sp, #8
  15d5fa:	1c29      	adds	r1, r5, #0
  15d5fc:	1c32      	adds	r2, r6, #0
  15d5fe:	1c3b      	adds	r3, r7, #0
  15d600:	f7ff fd58 	bl	15d0b4 <normalise>
  15d604:	2800      	cmp	r0, #0
  15d606:	d00a      	beq.n	15d61e <draw_round_rect+0x38>
  15d608:	0624      	lsls	r4, r4, #24
  15d60a:	0e24      	lsrs	r4, r4, #24
  15d60c:	9400      	str	r4, [sp, #0]
  15d60e:	2301      	movs	r3, #1
  15d610:	9301      	str	r3, [sp, #4]
  15d612:	9802      	ldr	r0, [sp, #8]
  15d614:	9903      	ldr	r1, [sp, #12]
  15d616:	9a04      	ldr	r2, [sp, #16]
  15d618:	9b05      	ldr	r3, [sp, #20]
  15d61a:	f7ff fee3 	bl	15d3e4 <draw_rectangle>
  15d61e:	b006      	add	sp, #24
  15d620:	bcf0      	pop	{r4, r5, r6, r7}
  15d622:	bc01      	pop	{r0}
  15d624:	4700      	bx	r0

0015d626 <draw_round_rect_thick>:
  15d626:	b5f0      	push	{r4, r5, r6, r7, lr}
  15d628:	b087      	sub	sp, #28
  15d62a:	1c05      	adds	r5, r0, #0
  15d62c:	1c0e      	adds	r6, r1, #0
  15d62e:	1c17      	adds	r7, r2, #0
  15d630:	9c0c      	ldr	r4, [sp, #48]	; 0x30
  15d632:	0424      	lsls	r4, r4, #16
  15d634:	0c24      	lsrs	r4, r4, #16
  15d636:	9300      	str	r3, [sp, #0]
  15d638:	a803      	add	r0, sp, #12
  15d63a:	1c29      	adds	r1, r5, #0
  15d63c:	1c32      	adds	r2, r6, #0
  15d63e:	1c3b      	adds	r3, r7, #0
  15d640:	f7ff fd38 	bl	15d0b4 <normalise>
  15d644:	2800      	cmp	r0, #0
  15d646:	d00c      	beq.n	15d662 <draw_round_rect_thick+0x3c>
  15d648:	0624      	lsls	r4, r4, #24
  15d64a:	0e24      	lsrs	r4, r4, #24
  15d64c:	9400      	str	r4, [sp, #0]
  15d64e:	9b0d      	ldr	r3, [sp, #52]	; 0x34
  15d650:	9301      	str	r3, [sp, #4]
  15d652:	2301      	movs	r3, #1
  15d654:	9302      	str	r3, [sp, #8]
  15d656:	9803      	ldr	r0, [sp, #12]
  15d658:	9904      	ldr	r1, [sp, #16]
  15d65a:	9a05      	ldr	r2, [sp, #20]
  15d65c:	9b06      	ldr	r3, [sp, #24]
  15d65e:	f7ff ff2e 	bl	15d4be <draw_rectangle_thick>
  15d662:	b007      	add	sp, #28
  15d664:	bcf0      	pop	{r4, r5, r6, r7}
  15d666:	bc01      	pop	{r0}
  15d668:	4700      	bx	r0

0015d66a <draw_filled_rect>:
  15d66a:	b5f0      	push	{r4, r5, r6, r7, lr}
  15d66c:	b087      	sub	sp, #28
  15d66e:	1c05      	adds	r5, r0, #0
  15d670:	1c0e      	adds	r6, r1, #0
  15d672:	1c17      	adds	r7, r2, #0
  15d674:	9c0c      	ldr	r4, [sp, #48]	; 0x30
  15d676:	0424      	lsls	r4, r4, #16
  15d678:	0c24      	lsrs	r4, r4, #16
  15d67a:	9300      	str	r3, [sp, #0]
  15d67c:	a803      	add	r0, sp, #12
  15d67e:	1c29      	adds	r1, r5, #0
  15d680:	1c32      	adds	r2, r6, #0
  15d682:	1c3b      	adds	r3, r7, #0
  15d684:	f7ff fd16 	bl	15d0b4 <normalise>
  15d688:	2800      	cmp	r0, #0
  15d68a:	d00a      	beq.n	15d6a2 <draw_filled_rect+0x38>
  15d68c:	9400      	str	r4, [sp, #0]
  15d68e:	2301      	movs	r3, #1
  15d690:	9301      	str	r3, [sp, #4]
  15d692:	2300      	movs	r3, #0
  15d694:	9302      	str	r3, [sp, #8]
  15d696:	9803      	ldr	r0, [sp, #12]
  15d698:	9904      	ldr	r1, [sp, #16]
  15d69a:	9a05      	ldr	r2, [sp, #20]
  15d69c:	9b06      	ldr	r3, [sp, #24]
  15d69e:	f7ff fedc 	bl	15d45a <draw_filled_rectangle_thick>
  15d6a2:	b007      	add	sp, #28
  15d6a4:	bcf0      	pop	{r4, r5, r6, r7}
  15d6a6:	bc01      	pop	{r0}
  15d6a8:	4700      	bx	r0

0015d6aa <draw_filled_rect_thick>:
  15d6aa:	b5f0      	push	{r4, r5, r6, r7, lr}
  15d6ac:	b087      	sub	sp, #28
  15d6ae:	1c05      	adds	r5, r0, #0
  15d6b0:	1c0e      	adds	r6, r1, #0
  15d6b2:	1c17      	adds	r7, r2, #0
  15d6b4:	9c0c      	ldr	r4, [sp, #48]	; 0x30
  15d6b6:	0424      	lsls	r4, r4, #16
  15d6b8:	0c24      	lsrs	r4, r4, #16
  15d6ba:	9300      	str	r3, [sp, #0]
  15d6bc:	a803      	add	r0, sp, #12
  15d6be:	1c29      	adds	r1, r5, #0
  15d6c0:	1c32      	adds	r2, r6, #0
  15d6c2:	1c3b      	adds	r3, r7, #0
  15d6c4:	f7ff fcf6 	bl	15d0b4 <normalise>
  15d6c8:	2800      	cmp	r0, #0
  15d6ca:	d00a      	beq.n	15d6e2 <draw_filled_rect_thick+0x38>
  15d6cc:	9400      	str	r4, [sp, #0]
  15d6ce:	9b0d      	ldr	r3, [sp, #52]	; 0x34
  15d6d0:	9301      	str	r3, [sp, #4]
  15d6d2:	2300      	movs	r3, #0
  15d6d4:	9302      	str	r3, [sp, #8]
  15d6d6:	9803      	ldr	r0, [sp, #12]
  15d6d8:	9904      	ldr	r1, [sp, #16]
  15d6da:	9a05      	ldr	r2, [sp, #20]
  15d6dc:	9b06      	ldr	r3, [sp, #24]
  15d6de:	f7ff febc 	bl	15d45a <draw_filled_rectangle_thick>
  15d6e2:	b007      	add	sp, #28
  15d6e4:	bcf0      	pop	{r4, r5, r6, r7}
  15d6e6:	bc01      	pop	{r0}
  15d6e8:	4700      	bx	r0

0015d6ea <draw_filled_round_rect>:
  15d6ea:	b5f0      	push	{r4, r5, r6, r7, lr}
  15d6ec:	b087      	sub	sp, #28
  15d6ee:	1c05      	adds	r5, r0, #0
  15d6f0:	1c0e      	adds	r6, r1, #0
  15d6f2:	1c17      	adds	r7, r2, #0
  15d6f4:	9c0c      	ldr	r4, [sp, #48]	; 0x30
  15d6f6:	0424      	lsls	r4, r4, #16
  15d6f8:	0c24      	lsrs	r4, r4, #16
  15d6fa:	9300      	str	r3, [sp, #0]
  15d6fc:	a803      	add	r0, sp, #12
  15d6fe:	1c29      	adds	r1, r5, #0
  15d700:	1c32      	adds	r2, r6, #0
  15d702:	1c3b      	adds	r3, r7, #0
  15d704:	f7ff fcd6 	bl	15d0b4 <normalise>
  15d708:	2800      	cmp	r0, #0
  15d70a:	d009      	beq.n	15d720 <draw_filled_round_rect+0x36>
  15d70c:	9400      	str	r4, [sp, #0]
  15d70e:	2301      	movs	r3, #1
  15d710:	9301      	str	r3, [sp, #4]
  15d712:	9302      	str	r3, [sp, #8]
  15d714:	9803      	ldr	r0, [sp, #12]
  15d716:	9904      	ldr	r1, [sp, #16]
  15d718:	9a05      	ldr	r2, [sp, #20]
  15d71a:	9b06      	ldr	r3, [sp, #24]
  15d71c:	f7ff fe9d 	bl	15d45a <draw_filled_rectangle_thick>
  15d720:	b007      	add	sp, #28
  15d722:	bcf0      	pop	{r4, r5, r6, r7}
  15d724:	bc01      	pop	{r0}
  15d726:	4700      	bx	r0

0015d728 <draw_filled_round_rect_thick>:
  15d728:	b5f0      	push	{r4, r5, r6, r7, lr}
  15d72a:	b087      	sub	sp, #28
  15d72c:	1c05      	adds	r5, r0, #0
  15d72e:	1c0e      	adds	r6, r1, #0
  15d730:	1c17      	adds	r7, r2, #0
  15d732:	9c0c      	ldr	r4, [sp, #48]	; 0x30
  15d734:	0424      	lsls	r4, r4, #16
  15d736:	0c24      	lsrs	r4, r4, #16
  15d738:	9300      	str	r3, [sp, #0]
  15d73a:	a803      	add	r0, sp, #12
  15d73c:	1c29      	adds	r1, r5, #0
  15d73e:	1c32      	adds	r2, r6, #0
  15d740:	1c3b      	adds	r3, r7, #0
  15d742:	f7ff fcb7 	bl	15d0b4 <normalise>
  15d746:	2800      	cmp	r0, #0
  15d748:	d00a      	beq.n	15d760 <draw_filled_round_rect_thick+0x38>
  15d74a:	9400      	str	r4, [sp, #0]
  15d74c:	9b0d      	ldr	r3, [sp, #52]	; 0x34
  15d74e:	9301      	str	r3, [sp, #4]
  15d750:	2301      	movs	r3, #1
  15d752:	9302      	str	r3, [sp, #8]
  15d754:	9803      	ldr	r0, [sp, #12]
  15d756:	9904      	ldr	r1, [sp, #16]
  15d758:	9a05      	ldr	r2, [sp, #20]
  15d75a:	9b06      	ldr	r3, [sp, #24]
  15d75c:	f7ff fe7d 	bl	15d45a <draw_filled_rectangle_thick>
  15d760:	b007      	add	sp, #28
  15d762:	bcf0      	pop	{r4, r5, r6, r7}
  15d764:	bc01      	pop	{r0}
  15d766:	4700      	bx	r0

0015d768 <draw_char>:
  15d768:	b5f0      	push	{r4, r5, r6, r7, lr}
  15d76a:	b085      	sub	sp, #20
  15d76c:	9000      	str	r0, [sp, #0]
  15d76e:	9101      	str	r1, [sp, #4]
  15d770:	0610      	lsls	r0, r2, #24
  15d772:	0e00      	lsrs	r0, r0, #24
  15d774:	041f      	lsls	r7, r3, #16
  15d776:	0c3a      	lsrs	r2, r7, #16
  15d778:	9203      	str	r2, [sp, #12]
  15d77a:	f007 fc8f 	bl	16509c <get_current_font_data>
  15d77e:	1c06      	adds	r6, r0, #0
  15d780:	7883      	ldrb	r3, [r0, #2]
  15d782:	1ac3      	subs	r3, r0, r3
  15d784:	3304      	adds	r3, #4
  15d786:	9302      	str	r3, [sp, #8]
  15d788:	0e3f      	lsrs	r7, r7, #24
  15d78a:	2400      	movs	r4, #0
  15d78c:	e007      	b.n	15d79e <draw_char+0x36>
  15d78e:	9b01      	ldr	r3, [sp, #4]
  15d790:	18e1      	adds	r1, r4, r3
  15d792:	9800      	ldr	r0, [sp, #0]
  15d794:	2208      	movs	r2, #8
  15d796:	1c3b      	adds	r3, r7, #0
  15d798:	f7ff fda3 	bl	15d2e2 <draw_hline>
  15d79c:	3401      	adds	r4, #1
  15d79e:	78b3      	ldrb	r3, [r6, #2]
  15d7a0:	429c      	cmp	r4, r3
  15d7a2:	dbf4      	blt.n	15d78e <draw_char+0x26>
  15d7a4:	e016      	b.n	15d7d4 <draw_char+0x6c>
  15d7a6:	2500      	movs	r5, #0
  15d7a8:	9a01      	ldr	r2, [sp, #4]
  15d7aa:	18a2      	adds	r2, r4, r2
  15d7ac:	9204      	str	r2, [sp, #16]
  15d7ae:	9b00      	ldr	r3, [sp, #0]
  15d7b0:	18e8      	adds	r0, r5, r3
  15d7b2:	2380      	movs	r3, #128	; 0x80
  15d7b4:	412b      	asrs	r3, r5
  15d7b6:	9a02      	ldr	r2, [sp, #8]
  15d7b8:	5d11      	ldrb	r1, [r2, r4]
  15d7ba:	1c3a      	adds	r2, r7, #0
  15d7bc:	4219      	tst	r1, r3
  15d7be:	d002      	beq.n	15d7c6 <draw_char+0x5e>
  15d7c0:	9b03      	ldr	r3, [sp, #12]
  15d7c2:	061a      	lsls	r2, r3, #24
  15d7c4:	0e12      	lsrs	r2, r2, #24
  15d7c6:	9904      	ldr	r1, [sp, #16]
  15d7c8:	f7ff fcf3 	bl	15d1b2 <draw_pixel>
  15d7cc:	3501      	adds	r5, #1
  15d7ce:	2d08      	cmp	r5, #8
  15d7d0:	d1ed      	bne.n	15d7ae <draw_char+0x46>
  15d7d2:	3401      	adds	r4, #1
  15d7d4:	78b2      	ldrb	r2, [r6, #2]
  15d7d6:	78f3      	ldrb	r3, [r6, #3]
  15d7d8:	18d3      	adds	r3, r2, r3
  15d7da:	429c      	cmp	r4, r3
  15d7dc:	dbe3      	blt.n	15d7a6 <draw_char+0x3e>
  15d7de:	e007      	b.n	15d7f0 <draw_char+0x88>
  15d7e0:	9a01      	ldr	r2, [sp, #4]
  15d7e2:	18a1      	adds	r1, r4, r2
  15d7e4:	9800      	ldr	r0, [sp, #0]
  15d7e6:	2208      	movs	r2, #8
  15d7e8:	1c3b      	adds	r3, r7, #0
  15d7ea:	f7ff fd7a 	bl	15d2e2 <draw_hline>
  15d7ee:	3401      	adds	r4, #1
  15d7f0:	2c0f      	cmp	r4, #15
  15d7f2:	ddf5      	ble.n	15d7e0 <draw_char+0x78>
  15d7f4:	b005      	add	sp, #20
  15d7f6:	bcf0      	pop	{r4, r5, r6, r7}
  15d7f8:	bc01      	pop	{r0}
  15d7fa:	4700      	bx	r0

0015d7fc <draw_char_scaled>:
  15d7fc:	b5f0      	push	{r4, r5, r6, r7, lr}
  15d7fe:	b08a      	sub	sp, #40	; 0x28
  15d800:	1c07      	adds	r7, r0, #0
  15d802:	9106      	str	r1, [sp, #24]
  15d804:	0610      	lsls	r0, r2, #24
  15d806:	0e00      	lsrs	r0, r0, #24
  15d808:	041a      	lsls	r2, r3, #16
  15d80a:	061b      	lsls	r3, r3, #24
  15d80c:	0e1b      	lsrs	r3, r3, #24
  15d80e:	0219      	lsls	r1, r3, #8
  15d810:	4319      	orrs	r1, r3
  15d812:	9107      	str	r1, [sp, #28]
  15d814:	0e13      	lsrs	r3, r2, #24
  15d816:	021a      	lsls	r2, r3, #8
  15d818:	431a      	orrs	r2, r3
  15d81a:	9202      	str	r2, [sp, #8]
  15d81c:	f007 fc3e 	bl	16509c <get_current_font_data>
  15d820:	9001      	str	r0, [sp, #4]
  15d822:	7883      	ldrb	r3, [r0, #2]
  15d824:	1ac3      	subs	r3, r0, r3
  15d826:	3304      	adds	r3, #4
  15d828:	9303      	str	r3, [sp, #12]
  15d82a:	980f      	ldr	r0, [sp, #60]	; 0x3c
  15d82c:	00c3      	lsls	r3, r0, #3
  15d82e:	18fb      	adds	r3, r7, r3
  15d830:	3b01      	subs	r3, #1
  15d832:	9304      	str	r3, [sp, #16]
  15d834:	9906      	ldr	r1, [sp, #24]
  15d836:	2500      	movs	r5, #0
  15d838:	e008      	b.n	15d84c <draw_char_scaled+0x50>
  15d83a:	1e63      	subs	r3, r4, #1
  15d83c:	9a02      	ldr	r2, [sp, #8]
  15d83e:	9200      	str	r2, [sp, #0]
  15d840:	1c38      	adds	r0, r7, #0
  15d842:	9a04      	ldr	r2, [sp, #16]
  15d844:	f7ff ff11 	bl	15d66a <draw_filled_rect>
  15d848:	3501      	adds	r5, #1
  15d84a:	1c21      	adds	r1, r4, #0
  15d84c:	9b10      	ldr	r3, [sp, #64]	; 0x40
  15d84e:	18cc      	adds	r4, r1, r3
  15d850:	9801      	ldr	r0, [sp, #4]
  15d852:	7883      	ldrb	r3, [r0, #2]
  15d854:	429d      	cmp	r5, r3
  15d856:	dbf0      	blt.n	15d83a <draw_char_scaled+0x3e>
  15d858:	9910      	ldr	r1, [sp, #64]	; 0x40
  15d85a:	1c0e      	adds	r6, r1, #0
  15d85c:	436e      	muls	r6, r5
  15d85e:	9a06      	ldr	r2, [sp, #24]
  15d860:	1996      	adds	r6, r2, r6
  15d862:	980f      	ldr	r0, [sp, #60]	; 0x3c
  15d864:	183b      	adds	r3, r7, r0
  15d866:	3b01      	subs	r3, #1
  15d868:	9309      	str	r3, [sp, #36]	; 0x24
  15d86a:	e042      	b.n	15d8f2 <draw_char_scaled+0xf6>
  15d86c:	9903      	ldr	r1, [sp, #12]
  15d86e:	5d4b      	ldrb	r3, [r1, r5]
  15d870:	217f      	movs	r1, #127	; 0x7f
  15d872:	438b      	bics	r3, r1
  15d874:	9a10      	ldr	r2, [sp, #64]	; 0x40
  15d876:	3a01      	subs	r2, #1
  15d878:	1992      	adds	r2, r2, r6
  15d87a:	9208      	str	r2, [sp, #32]
  15d87c:	9a09      	ldr	r2, [sp, #36]	; 0x24
  15d87e:	9205      	str	r2, [sp, #20]
  15d880:	2201      	movs	r2, #1
  15d882:	1c14      	adds	r4, r2, #0
  15d884:	9803      	ldr	r0, [sp, #12]
  15d886:	5d41      	ldrb	r1, [r0, r5]
  15d888:	40a1      	lsls	r1, r4
  15d88a:	2080      	movs	r0, #128	; 0x80
  15d88c:	4001      	ands	r1, r0
  15d88e:	4299      	cmp	r1, r3
  15d890:	d016      	beq.n	15d8c0 <draw_char_scaled+0xc4>
  15d892:	1aa0      	subs	r0, r4, r2
  15d894:	990f      	ldr	r1, [sp, #60]	; 0x3c
  15d896:	4348      	muls	r0, r1
  15d898:	1838      	adds	r0, r7, r0
  15d89a:	9902      	ldr	r1, [sp, #8]
  15d89c:	2b00      	cmp	r3, #0
  15d89e:	d000      	beq.n	15d8a2 <draw_char_scaled+0xa6>
  15d8a0:	9907      	ldr	r1, [sp, #28]
  15d8a2:	9100      	str	r1, [sp, #0]
  15d8a4:	1c31      	adds	r1, r6, #0
  15d8a6:	9a05      	ldr	r2, [sp, #20]
  15d8a8:	9b08      	ldr	r3, [sp, #32]
  15d8aa:	f7ff fede 	bl	15d66a <draw_filled_rect>
  15d8ae:	9a03      	ldr	r2, [sp, #12]
  15d8b0:	5d53      	ldrb	r3, [r2, r5]
  15d8b2:	40a3      	lsls	r3, r4
  15d8b4:	207f      	movs	r0, #127	; 0x7f
  15d8b6:	4383      	bics	r3, r0
  15d8b8:	061b      	lsls	r3, r3, #24
  15d8ba:	0e1b      	lsrs	r3, r3, #24
  15d8bc:	2201      	movs	r2, #1
  15d8be:	e000      	b.n	15d8c2 <draw_char_scaled+0xc6>
  15d8c0:	3201      	adds	r2, #1
  15d8c2:	3401      	adds	r4, #1
  15d8c4:	9905      	ldr	r1, [sp, #20]
  15d8c6:	980f      	ldr	r0, [sp, #60]	; 0x3c
  15d8c8:	1809      	adds	r1, r1, r0
  15d8ca:	9105      	str	r1, [sp, #20]
  15d8cc:	2c08      	cmp	r4, #8
  15d8ce:	d1d9      	bne.n	15d884 <draw_char_scaled+0x88>
  15d8d0:	1aa0      	subs	r0, r4, r2
  15d8d2:	990f      	ldr	r1, [sp, #60]	; 0x3c
  15d8d4:	4348      	muls	r0, r1
  15d8d6:	1838      	adds	r0, r7, r0
  15d8d8:	9902      	ldr	r1, [sp, #8]
  15d8da:	2b00      	cmp	r3, #0
  15d8dc:	d000      	beq.n	15d8e0 <draw_char_scaled+0xe4>
  15d8de:	9907      	ldr	r1, [sp, #28]
  15d8e0:	9100      	str	r1, [sp, #0]
  15d8e2:	1c31      	adds	r1, r6, #0
  15d8e4:	9a04      	ldr	r2, [sp, #16]
  15d8e6:	9b08      	ldr	r3, [sp, #32]
  15d8e8:	f7ff febf 	bl	15d66a <draw_filled_rect>
  15d8ec:	3501      	adds	r5, #1
  15d8ee:	9a10      	ldr	r2, [sp, #64]	; 0x40
  15d8f0:	18b6      	adds	r6, r6, r2
  15d8f2:	9b01      	ldr	r3, [sp, #4]
  15d8f4:	789a      	ldrb	r2, [r3, #2]
  15d8f6:	78db      	ldrb	r3, [r3, #3]
  15d8f8:	18d3      	adds	r3, r2, r3
  15d8fa:	429d      	cmp	r5, r3
  15d8fc:	dbb6      	blt.n	15d86c <draw_char_scaled+0x70>
  15d8fe:	9810      	ldr	r0, [sp, #64]	; 0x40
  15d900:	1c04      	adds	r4, r0, #0
  15d902:	436c      	muls	r4, r5
  15d904:	9906      	ldr	r1, [sp, #24]
  15d906:	190c      	adds	r4, r1, r4
  15d908:	e009      	b.n	15d91e <draw_char_scaled+0x122>
  15d90a:	9a10      	ldr	r2, [sp, #64]	; 0x40
  15d90c:	1aa1      	subs	r1, r4, r2
  15d90e:	1e63      	subs	r3, r4, #1
  15d910:	9802      	ldr	r0, [sp, #8]
  15d912:	9000      	str	r0, [sp, #0]
  15d914:	1c38      	adds	r0, r7, #0
  15d916:	9a04      	ldr	r2, [sp, #16]
  15d918:	f7ff fea7 	bl	15d66a <draw_filled_rect>
  15d91c:	3501      	adds	r5, #1
  15d91e:	9910      	ldr	r1, [sp, #64]	; 0x40
  15d920:	1864      	adds	r4, r4, r1
  15d922:	2d0f      	cmp	r5, #15
  15d924:	ddf1      	ble.n	15d90a <draw_char_scaled+0x10e>
  15d926:	b00a      	add	sp, #40	; 0x28
  15d928:	bcf0      	pop	{r4, r5, r6, r7}
  15d92a:	bc01      	pop	{r0}
  15d92c:	4700      	bx	r0

0015d92e <draw_string>:
  15d92e:	b5f1      	push	{r0, r4, r5, r6, r7, lr}
  15d930:	1c04      	adds	r4, r0, #0
  15d932:	9100      	str	r1, [sp, #0]
  15d934:	041f      	lsls	r7, r3, #16
  15d936:	0c3f      	lsrs	r7, r7, #16
  15d938:	1c15      	adds	r5, r2, #0
  15d93a:	4e0f      	ldr	r6, [pc, #60]	; (15d978 <draw_string+0x4a>)
  15d93c:	e015      	b.n	15d96a <draw_string+0x3c>
  15d93e:	1c20      	adds	r0, r4, #0
  15d940:	9900      	ldr	r1, [sp, #0]
  15d942:	1c3b      	adds	r3, r7, #0
  15d944:	f7ff ff10 	bl	15d768 <draw_char>
  15d948:	1c23      	adds	r3, r4, #0
  15d94a:	3308      	adds	r3, #8
  15d94c:	6872      	ldr	r2, [r6, #4]
  15d94e:	4293      	cmp	r3, r2
  15d950:	db09      	blt.n	15d966 <draw_string+0x38>
  15d952:	786a      	ldrb	r2, [r5, #1]
  15d954:	2a00      	cmp	r2, #0
  15d956:	d006      	beq.n	15d966 <draw_string+0x38>
  15d958:	1c20      	adds	r0, r4, #0
  15d95a:	9900      	ldr	r1, [sp, #0]
  15d95c:	223e      	movs	r2, #62	; 0x3e
  15d95e:	1c3b      	adds	r3, r7, #0
  15d960:	f7ff ff02 	bl	15d768 <draw_char>
  15d964:	e004      	b.n	15d970 <draw_string+0x42>
  15d966:	3501      	adds	r5, #1
  15d968:	1c1c      	adds	r4, r3, #0
  15d96a:	782a      	ldrb	r2, [r5, #0]
  15d96c:	2a00      	cmp	r2, #0
  15d96e:	d1e6      	bne.n	15d93e <draw_string+0x10>
  15d970:	bcf1      	pop	{r0, r4, r5, r6, r7}
  15d972:	bc01      	pop	{r0}
  15d974:	4700      	bx	r0
  15d976:	46c0      	nop			; (mov r8, r8)
  15d978:	001781b0 	.word	0x001781b0

0015d97c <draw_string_scaled>:
  15d97c:	b5ff      	push	{r0, r1, r2, r3, r4, r5, r6, r7, lr}
  15d97e:	1c04      	adds	r4, r0, #0
  15d980:	9102      	str	r1, [sp, #8]
  15d982:	041f      	lsls	r7, r3, #16
  15d984:	0c3f      	lsrs	r7, r7, #16
  15d986:	9909      	ldr	r1, [sp, #36]	; 0x24
  15d988:	00c9      	lsls	r1, r1, #3
  15d98a:	9103      	str	r1, [sp, #12]
  15d98c:	1c15      	adds	r5, r2, #0
  15d98e:	4e13      	ldr	r6, [pc, #76]	; (15d9dc <draw_string_scaled+0x60>)
  15d990:	e01d      	b.n	15d9ce <draw_string_scaled+0x52>
  15d992:	9b09      	ldr	r3, [sp, #36]	; 0x24
  15d994:	9300      	str	r3, [sp, #0]
  15d996:	990a      	ldr	r1, [sp, #40]	; 0x28
  15d998:	9101      	str	r1, [sp, #4]
  15d99a:	1c20      	adds	r0, r4, #0
  15d99c:	9902      	ldr	r1, [sp, #8]
  15d99e:	1c3b      	adds	r3, r7, #0
  15d9a0:	f7ff ff2c 	bl	15d7fc <draw_char_scaled>
  15d9a4:	9b03      	ldr	r3, [sp, #12]
  15d9a6:	18e4      	adds	r4, r4, r3
  15d9a8:	6873      	ldr	r3, [r6, #4]
  15d9aa:	429c      	cmp	r4, r3
  15d9ac:	db0e      	blt.n	15d9cc <draw_string_scaled+0x50>
  15d9ae:	786b      	ldrb	r3, [r5, #1]
  15d9b0:	2b00      	cmp	r3, #0
  15d9b2:	d00b      	beq.n	15d9cc <draw_string_scaled+0x50>
  15d9b4:	9909      	ldr	r1, [sp, #36]	; 0x24
  15d9b6:	00c8      	lsls	r0, r1, #3
  15d9b8:	1a20      	subs	r0, r4, r0
  15d9ba:	9100      	str	r1, [sp, #0]
  15d9bc:	9b0a      	ldr	r3, [sp, #40]	; 0x28
  15d9be:	9301      	str	r3, [sp, #4]
  15d9c0:	9902      	ldr	r1, [sp, #8]
  15d9c2:	223e      	movs	r2, #62	; 0x3e
  15d9c4:	1c3b      	adds	r3, r7, #0
  15d9c6:	f7ff ff19 	bl	15d7fc <draw_char_scaled>
  15d9ca:	e003      	b.n	15d9d4 <draw_string_scaled+0x58>
  15d9cc:	3501      	adds	r5, #1
  15d9ce:	782a      	ldrb	r2, [r5, #0]
  15d9d0:	2a00      	cmp	r2, #0
  15d9d2:	d1de      	bne.n	15d992 <draw_string_scaled+0x16>
  15d9d4:	bcff      	pop	{r0, r1, r2, r3, r4, r5, r6, r7}
  15d9d6:	bc01      	pop	{r0}
  15d9d8:	4700      	bx	r0
  15d9da:	46c0      	nop			; (mov r8, r8)
  15d9dc:	001781b0 	.word	0x001781b0

0015d9e0 <draw_osd_string>:
  15d9e0:	b5f7      	push	{r0, r1, r2, r4, r5, r6, r7, lr}
  15d9e2:	9102      	str	r1, [sp, #8]
  15d9e4:	1c14      	adds	r4, r2, #0
  15d9e6:	1c1a      	adds	r2, r3, #0
  15d9e8:	9b08      	ldr	r3, [sp, #32]
  15d9ea:	041b      	lsls	r3, r3, #16
  15d9ec:	0c1b      	lsrs	r3, r3, #16
  15d9ee:	0406      	lsls	r6, r0, #16
  15d9f0:	0c36      	lsrs	r6, r6, #16
  15d9f2:	0c00      	lsrs	r0, r0, #16
  15d9f4:	4684      	mov	ip, r0
  15d9f6:	9809      	ldr	r0, [sp, #36]	; 0x24
  15d9f8:	0405      	lsls	r5, r0, #16
  15d9fa:	0c2d      	lsrs	r5, r5, #16
  15d9fc:	0c07      	lsrs	r7, r0, #16
  15d9fe:	2d00      	cmp	r5, #0
  15da00:	d004      	beq.n	15da0c <draw_osd_string+0x2c>
  15da02:	2f00      	cmp	r7, #0
  15da04:	d002      	beq.n	15da0c <draw_osd_string+0x2c>
  15da06:	490c      	ldr	r1, [pc, #48]	; (15da38 <draw_osd_string+0x58>)
  15da08:	4288      	cmp	r0, r1
  15da0a:	d106      	bne.n	15da1a <draw_osd_string+0x3a>
  15da0c:	9d02      	ldr	r5, [sp, #8]
  15da0e:	1970      	adds	r0, r6, r5
  15da10:	4666      	mov	r6, ip
  15da12:	1931      	adds	r1, r6, r4
  15da14:	f7ff ff8b 	bl	15d92e <draw_string>
  15da18:	e00a      	b.n	15da30 <draw_osd_string+0x50>
  15da1a:	9802      	ldr	r0, [sp, #8]
  15da1c:	1c01      	adds	r1, r0, #0
  15da1e:	4369      	muls	r1, r5
  15da20:	1870      	adds	r0, r6, r1
  15da22:	437c      	muls	r4, r7
  15da24:	4666      	mov	r6, ip
  15da26:	1931      	adds	r1, r6, r4
  15da28:	9500      	str	r5, [sp, #0]
  15da2a:	9701      	str	r7, [sp, #4]
  15da2c:	f7ff ffa6 	bl	15d97c <draw_string_scaled>
  15da30:	bcf7      	pop	{r0, r1, r2, r4, r5, r6, r7}
  15da32:	bc01      	pop	{r0}
  15da34:	4700      	bx	r0
  15da36:	46c0      	nop			; (mov r8, r8)
  15da38:	00010001 	.word	0x00010001

0015da3c <draw_txt_rect>:
  15da3c:	b571      	push	{r0, r4, r5, r6, lr}
  15da3e:	9d05      	ldr	r5, [sp, #20]
  15da40:	042d      	lsls	r5, r5, #16
  15da42:	0c2d      	lsrs	r5, r5, #16
  15da44:	00c6      	lsls	r6, r0, #3
  15da46:	010c      	lsls	r4, r1, #4
  15da48:	1812      	adds	r2, r2, r0
  15da4a:	00d2      	lsls	r2, r2, #3
  15da4c:	3a01      	subs	r2, #1
  15da4e:	185b      	adds	r3, r3, r1
  15da50:	011b      	lsls	r3, r3, #4
  15da52:	3b01      	subs	r3, #1
  15da54:	9500      	str	r5, [sp, #0]
  15da56:	1c30      	adds	r0, r6, #0
  15da58:	1c21      	adds	r1, r4, #0
  15da5a:	f7ff fd57 	bl	15d50c <draw_rect>
  15da5e:	bc71      	pop	{r0, r4, r5, r6}
  15da60:	bc01      	pop	{r0}
  15da62:	4700      	bx	r0

0015da64 <draw_txt_rect_exp>:
  15da64:	b5f1      	push	{r0, r4, r5, r6, r7, lr}
  15da66:	1c04      	adds	r4, r0, #0
  15da68:	1c0d      	adds	r5, r1, #0
  15da6a:	9e06      	ldr	r6, [sp, #24]
  15da6c:	9f07      	ldr	r7, [sp, #28]
  15da6e:	043f      	lsls	r7, r7, #16
  15da70:	0c3f      	lsrs	r7, r7, #16
  15da72:	00c0      	lsls	r0, r0, #3
  15da74:	1b80      	subs	r0, r0, r6
  15da76:	0109      	lsls	r1, r1, #4
  15da78:	1b89      	subs	r1, r1, r6
  15da7a:	1912      	adds	r2, r2, r4
  15da7c:	00d2      	lsls	r2, r2, #3
  15da7e:	18b2      	adds	r2, r6, r2
  15da80:	3a01      	subs	r2, #1
  15da82:	3e01      	subs	r6, #1
  15da84:	195d      	adds	r5, r3, r5
  15da86:	012d      	lsls	r5, r5, #4
  15da88:	1973      	adds	r3, r6, r5
  15da8a:	9700      	str	r7, [sp, #0]
  15da8c:	f7ff fd3e 	bl	15d50c <draw_rect>
  15da90:	bcf1      	pop	{r0, r4, r5, r6, r7}
  15da92:	bc01      	pop	{r0}
  15da94:	4700      	bx	r0

0015da96 <draw_txt_filled_rect>:
  15da96:	b571      	push	{r0, r4, r5, r6, lr}
  15da98:	9d05      	ldr	r5, [sp, #20]
  15da9a:	042d      	lsls	r5, r5, #16
  15da9c:	0c2d      	lsrs	r5, r5, #16
  15da9e:	00c6      	lsls	r6, r0, #3
  15daa0:	010c      	lsls	r4, r1, #4
  15daa2:	1812      	adds	r2, r2, r0
  15daa4:	00d2      	lsls	r2, r2, #3
  15daa6:	3a01      	subs	r2, #1
  15daa8:	185b      	adds	r3, r3, r1
  15daaa:	011b      	lsls	r3, r3, #4
  15daac:	3b01      	subs	r3, #1
  15daae:	9500      	str	r5, [sp, #0]
  15dab0:	1c30      	adds	r0, r6, #0
  15dab2:	1c21      	adds	r1, r4, #0
  15dab4:	f7ff fdd9 	bl	15d66a <draw_filled_rect>
  15dab8:	bc71      	pop	{r0, r4, r5, r6}
  15daba:	bc01      	pop	{r0}
  15dabc:	4700      	bx	r0

0015dabe <draw_txt_filled_rect_exp>:
  15dabe:	b5f1      	push	{r0, r4, r5, r6, r7, lr}
  15dac0:	1c04      	adds	r4, r0, #0
  15dac2:	1c0d      	adds	r5, r1, #0
  15dac4:	9e06      	ldr	r6, [sp, #24]
  15dac6:	9f07      	ldr	r7, [sp, #28]
  15dac8:	043f      	lsls	r7, r7, #16
  15daca:	0c3f      	lsrs	r7, r7, #16
  15dacc:	00c0      	lsls	r0, r0, #3
  15dace:	1b80      	subs	r0, r0, r6
  15dad0:	0109      	lsls	r1, r1, #4
  15dad2:	1b89      	subs	r1, r1, r6
  15dad4:	1912      	adds	r2, r2, r4
  15dad6:	00d2      	lsls	r2, r2, #3
  15dad8:	18b2      	adds	r2, r6, r2
  15dada:	3a01      	subs	r2, #1
  15dadc:	3e01      	subs	r6, #1
  15dade:	195d      	adds	r5, r3, r5
  15dae0:	012d      	lsls	r5, r5, #4
  15dae2:	1973      	adds	r3, r6, r5
  15dae4:	9700      	str	r7, [sp, #0]
  15dae6:	f7ff fdc0 	bl	15d66a <draw_filled_rect>
  15daea:	bcf1      	pop	{r0, r4, r5, r6, r7}
  15daec:	bc01      	pop	{r0}
  15daee:	4700      	bx	r0

0015daf0 <draw_txt_string>:
  15daf0:	b500      	push	{lr}
  15daf2:	041b      	lsls	r3, r3, #16
  15daf4:	0c1b      	lsrs	r3, r3, #16
  15daf6:	00c0      	lsls	r0, r0, #3
  15daf8:	0109      	lsls	r1, r1, #4
  15dafa:	f7ff ff18 	bl	15d92e <draw_string>
  15dafe:	bc01      	pop	{r0}
  15db00:	4700      	bx	r0

0015db02 <draw_txt_char>:
  15db02:	b500      	push	{lr}
  15db04:	0612      	lsls	r2, r2, #24
  15db06:	0e12      	lsrs	r2, r2, #24
  15db08:	041b      	lsls	r3, r3, #16
  15db0a:	0c1b      	lsrs	r3, r3, #16
  15db0c:	00c0      	lsls	r0, r0, #3
  15db0e:	0109      	lsls	r1, r1, #4
  15db10:	f7ff fe2a 	bl	15d768 <draw_char>
  15db14:	bc01      	pop	{r0}
  15db16:	4700      	bx	r0

0015db18 <draw_circle>:
  15db18:	b5f0      	push	{r4, r5, r6, r7, lr}
  15db1a:	b087      	sub	sp, #28
  15db1c:	9002      	str	r0, [sp, #8]
  15db1e:	9103      	str	r1, [sp, #12]
  15db20:	041d      	lsls	r5, r3, #16
  15db22:	0c2d      	lsrs	r5, r5, #16
  15db24:	1c16      	adds	r6, r2, #0
  15db26:	0053      	lsls	r3, r2, #1
  15db28:	2203      	movs	r2, #3
  15db2a:	1ad2      	subs	r2, r2, r3
  15db2c:	9200      	str	r2, [sp, #0]
  15db2e:	2700      	movs	r7, #0
  15db30:	9a02      	ldr	r2, [sp, #8]
  15db32:	18ba      	adds	r2, r7, r2
  15db34:	9201      	str	r2, [sp, #4]
  15db36:	9b03      	ldr	r3, [sp, #12]
  15db38:	199b      	adds	r3, r3, r6
  15db3a:	9304      	str	r3, [sp, #16]
  15db3c:	1c10      	adds	r0, r2, #0
  15db3e:	1c19      	adds	r1, r3, #0
  15db40:	1c2a      	adds	r2, r5, #0
  15db42:	f7ff fb36 	bl	15d1b2 <draw_pixel>
  15db46:	9a02      	ldr	r2, [sp, #8]
  15db48:	1994      	adds	r4, r2, r6
  15db4a:	9b03      	ldr	r3, [sp, #12]
  15db4c:	18fb      	adds	r3, r7, r3
  15db4e:	9305      	str	r3, [sp, #20]
  15db50:	1c20      	adds	r0, r4, #0
  15db52:	1c19      	adds	r1, r3, #0
  15db54:	1c2a      	adds	r2, r5, #0
  15db56:	f7ff fb2c 	bl	15d1b2 <draw_pixel>
  15db5a:	9a03      	ldr	r2, [sp, #12]
  15db5c:	1bd2      	subs	r2, r2, r7
  15db5e:	9206      	str	r2, [sp, #24]
  15db60:	1c20      	adds	r0, r4, #0
  15db62:	1c11      	adds	r1, r2, #0
  15db64:	1c2a      	adds	r2, r5, #0
  15db66:	f7ff fb24 	bl	15d1b2 <draw_pixel>
  15db6a:	9b03      	ldr	r3, [sp, #12]
  15db6c:	1b9c      	subs	r4, r3, r6
  15db6e:	9801      	ldr	r0, [sp, #4]
  15db70:	1c21      	adds	r1, r4, #0
  15db72:	1c2a      	adds	r2, r5, #0
  15db74:	f7ff fb1d 	bl	15d1b2 <draw_pixel>
  15db78:	9a02      	ldr	r2, [sp, #8]
  15db7a:	1bd2      	subs	r2, r2, r7
  15db7c:	9201      	str	r2, [sp, #4]
  15db7e:	1c10      	adds	r0, r2, #0
  15db80:	1c21      	adds	r1, r4, #0
  15db82:	1c2a      	adds	r2, r5, #0
  15db84:	f7ff fb15 	bl	15d1b2 <draw_pixel>
  15db88:	9b02      	ldr	r3, [sp, #8]
  15db8a:	1b9c      	subs	r4, r3, r6
  15db8c:	1c20      	adds	r0, r4, #0
  15db8e:	9906      	ldr	r1, [sp, #24]
  15db90:	1c2a      	adds	r2, r5, #0
  15db92:	f7ff fb0e 	bl	15d1b2 <draw_pixel>
  15db96:	1c20      	adds	r0, r4, #0
  15db98:	9905      	ldr	r1, [sp, #20]
  15db9a:	1c2a      	adds	r2, r5, #0
  15db9c:	f7ff fb09 	bl	15d1b2 <draw_pixel>
  15dba0:	9801      	ldr	r0, [sp, #4]
  15dba2:	9904      	ldr	r1, [sp, #16]
  15dba4:	1c2a      	adds	r2, r5, #0
  15dba6:	f7ff fb04 	bl	15d1b2 <draw_pixel>
  15dbaa:	3701      	adds	r7, #1
  15dbac:	9a00      	ldr	r2, [sp, #0]
  15dbae:	2a00      	cmp	r2, #0
  15dbb0:	da02      	bge.n	15dbb8 <draw_circle+0xa0>
  15dbb2:	00bb      	lsls	r3, r7, #2
  15dbb4:	3306      	adds	r3, #6
  15dbb6:	e004      	b.n	15dbc2 <draw_circle+0xaa>
  15dbb8:	3e01      	subs	r6, #1
  15dbba:	1bbb      	subs	r3, r7, r6
  15dbbc:	009b      	lsls	r3, r3, #2
  15dbbe:	330a      	adds	r3, #10
  15dbc0:	9a00      	ldr	r2, [sp, #0]
  15dbc2:	18d2      	adds	r2, r2, r3
  15dbc4:	9200      	str	r2, [sp, #0]
  15dbc6:	42b7      	cmp	r7, r6
  15dbc8:	ddb2      	ble.n	15db30 <draw_circle+0x18>
  15dbca:	b007      	add	sp, #28
  15dbcc:	bcf0      	pop	{r4, r5, r6, r7}
  15dbce:	bc01      	pop	{r0}
  15dbd0:	4700      	bx	r0

0015dbd2 <draw_ellipse>:
  15dbd2:	b5f0      	push	{r4, r5, r6, r7, lr}
  15dbd4:	b08e      	sub	sp, #56	; 0x38
  15dbd6:	9008      	str	r0, [sp, #32]
  15dbd8:	9109      	str	r1, [sp, #36]	; 0x24
  15dbda:	9305      	str	r3, [sp, #20]
  15dbdc:	9d13      	ldr	r5, [sp, #76]	; 0x4c
  15dbde:	042d      	lsls	r5, r5, #16
  15dbe0:	0c2d      	lsrs	r5, r5, #16
  15dbe2:	1c11      	adds	r1, r2, #0
  15dbe4:	4351      	muls	r1, r2
  15dbe6:	9104      	str	r1, [sp, #16]
  15dbe8:	004b      	lsls	r3, r1, #1
  15dbea:	9306      	str	r3, [sp, #24]
  15dbec:	9b05      	ldr	r3, [sp, #20]
  15dbee:	1c19      	adds	r1, r3, #0
  15dbf0:	4359      	muls	r1, r3
  15dbf2:	910b      	str	r1, [sp, #44]	; 0x2c
  15dbf4:	0049      	lsls	r1, r1, #1
  15dbf6:	9107      	str	r1, [sp, #28]
  15dbf8:	1c16      	adds	r6, r2, #0
  15dbfa:	0053      	lsls	r3, r2, #1
  15dbfc:	2201      	movs	r2, #1
  15dbfe:	1ad3      	subs	r3, r2, r3
  15dc00:	990b      	ldr	r1, [sp, #44]	; 0x2c
  15dc02:	1c0a      	adds	r2, r1, #0
  15dc04:	435a      	muls	r2, r3
  15dc06:	9202      	str	r2, [sp, #8]
  15dc08:	9b07      	ldr	r3, [sp, #28]
  15dc0a:	1c32      	adds	r2, r6, #0
  15dc0c:	435a      	muls	r2, r3
  15dc0e:	9203      	str	r2, [sp, #12]
  15dc10:	2700      	movs	r7, #0
  15dc12:	9700      	str	r7, [sp, #0]
  15dc14:	9701      	str	r7, [sp, #4]
  15dc16:	e036      	b.n	15dc86 <draw_ellipse+0xb4>
  15dc18:	9908      	ldr	r1, [sp, #32]
  15dc1a:	1b8c      	subs	r4, r1, r6
  15dc1c:	9a09      	ldr	r2, [sp, #36]	; 0x24
  15dc1e:	9b01      	ldr	r3, [sp, #4]
  15dc20:	1ad2      	subs	r2, r2, r3
  15dc22:	920a      	str	r2, [sp, #40]	; 0x28
  15dc24:	1c20      	adds	r0, r4, #0
  15dc26:	1c11      	adds	r1, r2, #0
  15dc28:	1c2a      	adds	r2, r5, #0
  15dc2a:	f7ff fac2 	bl	15d1b2 <draw_pixel>
  15dc2e:	9901      	ldr	r1, [sp, #4]
  15dc30:	9a09      	ldr	r2, [sp, #36]	; 0x24
  15dc32:	1889      	adds	r1, r1, r2
  15dc34:	910c      	str	r1, [sp, #48]	; 0x30
  15dc36:	1c20      	adds	r0, r4, #0
  15dc38:	1c2a      	adds	r2, r5, #0
  15dc3a:	f7ff faba 	bl	15d1b2 <draw_pixel>
  15dc3e:	9b08      	ldr	r3, [sp, #32]
  15dc40:	199c      	adds	r4, r3, r6
  15dc42:	1c20      	adds	r0, r4, #0
  15dc44:	990a      	ldr	r1, [sp, #40]	; 0x28
  15dc46:	1c2a      	adds	r2, r5, #0
  15dc48:	f7ff fab3 	bl	15d1b2 <draw_pixel>
  15dc4c:	1c20      	adds	r0, r4, #0
  15dc4e:	990c      	ldr	r1, [sp, #48]	; 0x30
  15dc50:	1c2a      	adds	r2, r5, #0
  15dc52:	f7ff faae 	bl	15d1b2 <draw_pixel>
  15dc56:	9901      	ldr	r1, [sp, #4]
  15dc58:	3101      	adds	r1, #1
  15dc5a:	9101      	str	r1, [sp, #4]
  15dc5c:	9a06      	ldr	r2, [sp, #24]
  15dc5e:	18bf      	adds	r7, r7, r2
  15dc60:	9b00      	ldr	r3, [sp, #0]
  15dc62:	990d      	ldr	r1, [sp, #52]	; 0x34
  15dc64:	185b      	adds	r3, r3, r1
  15dc66:	9300      	str	r3, [sp, #0]
  15dc68:	005b      	lsls	r3, r3, #1
  15dc6a:	9a02      	ldr	r2, [sp, #8]
  15dc6c:	189b      	adds	r3, r3, r2
  15dc6e:	2b00      	cmp	r3, #0
  15dc70:	dd09      	ble.n	15dc86 <draw_ellipse+0xb4>
  15dc72:	3e01      	subs	r6, #1
  15dc74:	9b03      	ldr	r3, [sp, #12]
  15dc76:	9907      	ldr	r1, [sp, #28]
  15dc78:	1a5b      	subs	r3, r3, r1
  15dc7a:	9303      	str	r3, [sp, #12]
  15dc7c:	9b00      	ldr	r3, [sp, #0]
  15dc7e:	189b      	adds	r3, r3, r2
  15dc80:	9300      	str	r3, [sp, #0]
  15dc82:	1852      	adds	r2, r2, r1
  15dc84:	9202      	str	r2, [sp, #8]
  15dc86:	9904      	ldr	r1, [sp, #16]
  15dc88:	1879      	adds	r1, r7, r1
  15dc8a:	910d      	str	r1, [sp, #52]	; 0x34
  15dc8c:	9a03      	ldr	r2, [sp, #12]
  15dc8e:	42ba      	cmp	r2, r7
  15dc90:	dac2      	bge.n	15dc18 <draw_ellipse+0x46>
  15dc92:	9e05      	ldr	r6, [sp, #20]
  15dc94:	0073      	lsls	r3, r6, #1
  15dc96:	2201      	movs	r2, #1
  15dc98:	1ad3      	subs	r3, r2, r3
  15dc9a:	9a04      	ldr	r2, [sp, #16]
  15dc9c:	1c11      	adds	r1, r2, #0
  15dc9e:	4359      	muls	r1, r3
  15dca0:	9102      	str	r1, [sp, #8]
  15dca2:	9906      	ldr	r1, [sp, #24]
  15dca4:	1c33      	adds	r3, r6, #0
  15dca6:	434b      	muls	r3, r1
  15dca8:	9303      	str	r3, [sp, #12]
  15dcaa:	2700      	movs	r7, #0
  15dcac:	9700      	str	r7, [sp, #0]
  15dcae:	9701      	str	r7, [sp, #4]
  15dcb0:	e036      	b.n	15dd20 <draw_ellipse+0x14e>
  15dcb2:	9a08      	ldr	r2, [sp, #32]
  15dcb4:	9b01      	ldr	r3, [sp, #4]
  15dcb6:	1ad4      	subs	r4, r2, r3
  15dcb8:	9909      	ldr	r1, [sp, #36]	; 0x24
  15dcba:	1b89      	subs	r1, r1, r6
  15dcbc:	9104      	str	r1, [sp, #16]
  15dcbe:	1c20      	adds	r0, r4, #0
  15dcc0:	1c2a      	adds	r2, r5, #0
  15dcc2:	f7ff fa76 	bl	15d1b2 <draw_pixel>
  15dcc6:	9a09      	ldr	r2, [sp, #36]	; 0x24
  15dcc8:	1992      	adds	r2, r2, r6
  15dcca:	9205      	str	r2, [sp, #20]
  15dccc:	1c20      	adds	r0, r4, #0
  15dcce:	1c11      	adds	r1, r2, #0
  15dcd0:	1c2a      	adds	r2, r5, #0
  15dcd2:	f7ff fa6e 	bl	15d1b2 <draw_pixel>
  15dcd6:	9b01      	ldr	r3, [sp, #4]
  15dcd8:	9908      	ldr	r1, [sp, #32]
  15dcda:	185c      	adds	r4, r3, r1
  15dcdc:	1c20      	adds	r0, r4, #0
  15dcde:	9904      	ldr	r1, [sp, #16]
  15dce0:	1c2a      	adds	r2, r5, #0
  15dce2:	f7ff fa66 	bl	15d1b2 <draw_pixel>
  15dce6:	1c20      	adds	r0, r4, #0
  15dce8:	9905      	ldr	r1, [sp, #20]
  15dcea:	1c2a      	adds	r2, r5, #0
  15dcec:	f7ff fa61 	bl	15d1b2 <draw_pixel>
  15dcf0:	9a01      	ldr	r2, [sp, #4]
  15dcf2:	3201      	adds	r2, #1
  15dcf4:	9201      	str	r2, [sp, #4]
  15dcf6:	9b07      	ldr	r3, [sp, #28]
  15dcf8:	18ff      	adds	r7, r7, r3
  15dcfa:	9900      	ldr	r1, [sp, #0]
  15dcfc:	9a0a      	ldr	r2, [sp, #40]	; 0x28
  15dcfe:	1889      	adds	r1, r1, r2
  15dd00:	9100      	str	r1, [sp, #0]
  15dd02:	004b      	lsls	r3, r1, #1
  15dd04:	9902      	ldr	r1, [sp, #8]
  15dd06:	185b      	adds	r3, r3, r1
  15dd08:	2b00      	cmp	r3, #0
  15dd0a:	dd09      	ble.n	15dd20 <draw_ellipse+0x14e>
  15dd0c:	3e01      	subs	r6, #1
  15dd0e:	9a03      	ldr	r2, [sp, #12]
  15dd10:	9b06      	ldr	r3, [sp, #24]
  15dd12:	1ad2      	subs	r2, r2, r3
  15dd14:	9203      	str	r2, [sp, #12]
  15dd16:	9a00      	ldr	r2, [sp, #0]
  15dd18:	1852      	adds	r2, r2, r1
  15dd1a:	9200      	str	r2, [sp, #0]
  15dd1c:	18c9      	adds	r1, r1, r3
  15dd1e:	9102      	str	r1, [sp, #8]
  15dd20:	9b0b      	ldr	r3, [sp, #44]	; 0x2c
  15dd22:	18fb      	adds	r3, r7, r3
  15dd24:	930a      	str	r3, [sp, #40]	; 0x28
  15dd26:	9903      	ldr	r1, [sp, #12]
  15dd28:	428f      	cmp	r7, r1
  15dd2a:	ddc2      	ble.n	15dcb2 <draw_ellipse+0xe0>
  15dd2c:	b00e      	add	sp, #56	; 0x38
  15dd2e:	bcf0      	pop	{r4, r5, r6, r7}
  15dd30:	bc01      	pop	{r0}
  15dd32:	4700      	bx	r0

0015dd34 <draw_filled_ellipse>:
  15dd34:	b5f0      	push	{r4, r5, r6, r7, lr}
  15dd36:	b08d      	sub	sp, #52	; 0x34
  15dd38:	900b      	str	r0, [sp, #44]	; 0x2c
  15dd3a:	9107      	str	r1, [sp, #28]
  15dd3c:	9303      	str	r3, [sp, #12]
  15dd3e:	9b12      	ldr	r3, [sp, #72]	; 0x48
  15dd40:	041b      	lsls	r3, r3, #16
  15dd42:	0e1b      	lsrs	r3, r3, #24
  15dd44:	0219      	lsls	r1, r3, #8
  15dd46:	4319      	orrs	r1, r3
  15dd48:	9104      	str	r1, [sp, #16]
  15dd4a:	1c11      	adds	r1, r2, #0
  15dd4c:	4351      	muls	r1, r2
  15dd4e:	9102      	str	r1, [sp, #8]
  15dd50:	004b      	lsls	r3, r1, #1
  15dd52:	9305      	str	r3, [sp, #20]
  15dd54:	9b03      	ldr	r3, [sp, #12]
  15dd56:	1c19      	adds	r1, r3, #0
  15dd58:	4359      	muls	r1, r3
  15dd5a:	9108      	str	r1, [sp, #32]
  15dd5c:	0049      	lsls	r1, r1, #1
  15dd5e:	9106      	str	r1, [sp, #24]
  15dd60:	1c14      	adds	r4, r2, #0
  15dd62:	0053      	lsls	r3, r2, #1
  15dd64:	2701      	movs	r7, #1
  15dd66:	1aff      	subs	r7, r7, r3
  15dd68:	9a08      	ldr	r2, [sp, #32]
  15dd6a:	4357      	muls	r7, r2
  15dd6c:	1c23      	adds	r3, r4, #0
  15dd6e:	434b      	muls	r3, r1
  15dd70:	9301      	str	r3, [sp, #4]
  15dd72:	2500      	movs	r5, #0
  15dd74:	1c2e      	adds	r6, r5, #0
  15dd76:	9500      	str	r5, [sp, #0]
  15dd78:	e027      	b.n	15ddca <draw_filled_ellipse+0x96>
  15dd7a:	990b      	ldr	r1, [sp, #44]	; 0x2c
  15dd7c:	1b09      	subs	r1, r1, r4
  15dd7e:	9109      	str	r1, [sp, #36]	; 0x24
  15dd80:	0063      	lsls	r3, r4, #1
  15dd82:	3301      	adds	r3, #1
  15dd84:	930a      	str	r3, [sp, #40]	; 0x28
  15dd86:	9a07      	ldr	r2, [sp, #28]
  15dd88:	9b00      	ldr	r3, [sp, #0]
  15dd8a:	1ad1      	subs	r1, r2, r3
  15dd8c:	9809      	ldr	r0, [sp, #36]	; 0x24
  15dd8e:	9a0a      	ldr	r2, [sp, #40]	; 0x28
  15dd90:	9b04      	ldr	r3, [sp, #16]
  15dd92:	f7ff faa6 	bl	15d2e2 <draw_hline>
  15dd96:	9a00      	ldr	r2, [sp, #0]
  15dd98:	9b07      	ldr	r3, [sp, #28]
  15dd9a:	18d1      	adds	r1, r2, r3
  15dd9c:	9809      	ldr	r0, [sp, #36]	; 0x24
  15dd9e:	9a0a      	ldr	r2, [sp, #40]	; 0x28
  15dda0:	9b04      	ldr	r3, [sp, #16]
  15dda2:	f7ff fa9e 	bl	15d2e2 <draw_hline>
  15dda6:	9900      	ldr	r1, [sp, #0]
  15dda8:	3101      	adds	r1, #1
  15ddaa:	9100      	str	r1, [sp, #0]
  15ddac:	9a05      	ldr	r2, [sp, #20]
  15ddae:	18ad      	adds	r5, r5, r2
  15ddb0:	9b0c      	ldr	r3, [sp, #48]	; 0x30
  15ddb2:	18f6      	adds	r6, r6, r3
  15ddb4:	0073      	lsls	r3, r6, #1
  15ddb6:	19db      	adds	r3, r3, r7
  15ddb8:	2b00      	cmp	r3, #0
  15ddba:	dd06      	ble.n	15ddca <draw_filled_ellipse+0x96>
  15ddbc:	3c01      	subs	r4, #1
  15ddbe:	9901      	ldr	r1, [sp, #4]
  15ddc0:	9a06      	ldr	r2, [sp, #24]
  15ddc2:	1a89      	subs	r1, r1, r2
  15ddc4:	9101      	str	r1, [sp, #4]
  15ddc6:	19f6      	adds	r6, r6, r7
  15ddc8:	18bf      	adds	r7, r7, r2
  15ddca:	9b02      	ldr	r3, [sp, #8]
  15ddcc:	18eb      	adds	r3, r5, r3
  15ddce:	930c      	str	r3, [sp, #48]	; 0x30
  15ddd0:	9901      	ldr	r1, [sp, #4]
  15ddd2:	42a9      	cmp	r1, r5
  15ddd4:	dad1      	bge.n	15dd7a <draw_filled_ellipse+0x46>
  15ddd6:	9c03      	ldr	r4, [sp, #12]
  15ddd8:	0063      	lsls	r3, r4, #1
  15ddda:	2701      	movs	r7, #1
  15dddc:	1aff      	subs	r7, r7, r3
  15ddde:	9a02      	ldr	r2, [sp, #8]
  15dde0:	4357      	muls	r7, r2
  15dde2:	9905      	ldr	r1, [sp, #20]
  15dde4:	1c23      	adds	r3, r4, #0
  15dde6:	434b      	muls	r3, r1
  15dde8:	9301      	str	r3, [sp, #4]
  15ddea:	2500      	movs	r5, #0
  15ddec:	1c2e      	adds	r6, r5, #0
  15ddee:	9500      	str	r5, [sp, #0]
  15ddf0:	e025      	b.n	15de3e <draw_filled_ellipse+0x10a>
  15ddf2:	9a00      	ldr	r2, [sp, #0]
  15ddf4:	3201      	adds	r2, #1
  15ddf6:	9200      	str	r2, [sp, #0]
  15ddf8:	9906      	ldr	r1, [sp, #24]
  15ddfa:	186d      	adds	r5, r5, r1
  15ddfc:	18f6      	adds	r6, r6, r3
  15ddfe:	0073      	lsls	r3, r6, #1
  15de00:	19db      	adds	r3, r3, r7
  15de02:	2b00      	cmp	r3, #0
  15de04:	dd1b      	ble.n	15de3e <draw_filled_ellipse+0x10a>
  15de06:	9b0b      	ldr	r3, [sp, #44]	; 0x2c
  15de08:	1a9a      	subs	r2, r3, r2
  15de0a:	9203      	str	r2, [sp, #12]
  15de0c:	9900      	ldr	r1, [sp, #0]
  15de0e:	004b      	lsls	r3, r1, #1
  15de10:	3301      	adds	r3, #1
  15de12:	9302      	str	r3, [sp, #8]
  15de14:	9a07      	ldr	r2, [sp, #28]
  15de16:	1b11      	subs	r1, r2, r4
  15de18:	9803      	ldr	r0, [sp, #12]
  15de1a:	1c1a      	adds	r2, r3, #0
  15de1c:	9b04      	ldr	r3, [sp, #16]
  15de1e:	f7ff fa60 	bl	15d2e2 <draw_hline>
  15de22:	9b07      	ldr	r3, [sp, #28]
  15de24:	1919      	adds	r1, r3, r4
  15de26:	9803      	ldr	r0, [sp, #12]
  15de28:	9a02      	ldr	r2, [sp, #8]
  15de2a:	9b04      	ldr	r3, [sp, #16]
  15de2c:	f7ff fa59 	bl	15d2e2 <draw_hline>
  15de30:	3c01      	subs	r4, #1
  15de32:	9901      	ldr	r1, [sp, #4]
  15de34:	9a05      	ldr	r2, [sp, #20]
  15de36:	1a89      	subs	r1, r1, r2
  15de38:	9101      	str	r1, [sp, #4]
  15de3a:	19f6      	adds	r6, r6, r7
  15de3c:	18bf      	adds	r7, r7, r2
  15de3e:	9908      	ldr	r1, [sp, #32]
  15de40:	186b      	adds	r3, r5, r1
  15de42:	9a01      	ldr	r2, [sp, #4]
  15de44:	4295      	cmp	r5, r2
  15de46:	ddd4      	ble.n	15ddf2 <draw_filled_ellipse+0xbe>
  15de48:	b00d      	add	sp, #52	; 0x34
  15de4a:	bcf0      	pop	{r4, r5, r6, r7}
  15de4c:	bc01      	pop	{r0}
  15de4e:	4700      	bx	r0

0015de50 <draw_get_icon_colors>:
  15de50:	b510      	push	{r4, lr}
  15de52:	4a0f      	ldr	r2, [pc, #60]	; (15de90 <draw_get_icon_colors+0x40>)
  15de54:	20d4      	movs	r0, #212	; 0xd4
  15de56:	21d3      	movs	r1, #211	; 0xd3
  15de58:	4b0e      	ldr	r3, [pc, #56]	; (15de94 <draw_get_icon_colors+0x44>)
  15de5a:	8010      	strh	r0, [r2, #0]
  15de5c:	8051      	strh	r1, [r2, #2]
  15de5e:	21d5      	movs	r1, #213	; 0xd5
  15de60:	8091      	strh	r1, [r2, #4]
  15de62:	22db      	movs	r2, #219	; 0xdb
  15de64:	801a      	strh	r2, [r3, #0]
  15de66:	22da      	movs	r2, #218	; 0xda
  15de68:	805a      	strh	r2, [r3, #2]
  15de6a:	22dc      	movs	r2, #220	; 0xdc
  15de6c:	809a      	strh	r2, [r3, #4]
  15de6e:	4b0a      	ldr	r3, [pc, #40]	; (15de98 <draw_get_icon_colors+0x48>)
  15de70:	22d1      	movs	r2, #209	; 0xd1
  15de72:	801a      	strh	r2, [r3, #0]
  15de74:	22d0      	movs	r2, #208	; 0xd0
  15de76:	805a      	strh	r2, [r3, #2]
  15de78:	22d2      	movs	r2, #210	; 0xd2
  15de7a:	809a      	strh	r2, [r3, #4]
  15de7c:	4b07      	ldr	r3, [pc, #28]	; (15de9c <draw_get_icon_colors+0x4c>)
  15de7e:	221a      	movs	r2, #26
  15de80:	801a      	strh	r2, [r3, #0]
  15de82:	2216      	movs	r2, #22
  15de84:	805a      	strh	r2, [r3, #2]
  15de86:	220e      	movs	r2, #14
  15de88:	809a      	strh	r2, [r3, #4]
  15de8a:	bc10      	pop	{r4}
  15de8c:	bc01      	pop	{r0}
  15de8e:	4700      	bx	r0
  15de90:	0017d790 	.word	0x0017d790
  15de94:	0017d796 	.word	0x0017d796
  15de98:	0017d784 	.word	0x0017d784
  15de9c:	0017d78a 	.word	0x0017d78a
  15dea0:	4718      	bx	r3
  15dea2:	46c0      	nop			; (mov r8, r8)

0015dea4 <chdk_heap_init>:
  15dea4:	2300      	movs	r3, #0
  15dea6:	6003      	str	r3, [r0, #0]
  15dea8:	6043      	str	r3, [r0, #4]
  15deaa:	6083      	str	r3, [r0, #8]
  15deac:	60c3      	str	r3, [r0, #12]
  15deae:	4770      	bx	lr

0015deb0 <combine_meminfo>:
  15deb0:	6882      	ldr	r2, [r0, #8]
  15deb2:	688b      	ldr	r3, [r1, #8]
  15deb4:	18d3      	adds	r3, r2, r3
  15deb6:	6083      	str	r3, [r0, #8]
  15deb8:	69cb      	ldr	r3, [r1, #28]
  15deba:	69c2      	ldr	r2, [r0, #28]
  15debc:	4293      	cmp	r3, r2
  15debe:	dd00      	ble.n	15dec2 <combine_meminfo+0x12>
  15dec0:	61c3      	str	r3, [r0, #28]
  15dec2:	6982      	ldr	r2, [r0, #24]
  15dec4:	698b      	ldr	r3, [r1, #24]
  15dec6:	18d3      	adds	r3, r2, r3
  15dec8:	6183      	str	r3, [r0, #24]
  15deca:	6a02      	ldr	r2, [r0, #32]
  15decc:	6a0b      	ldr	r3, [r1, #32]
  15dece:	18d3      	adds	r3, r2, r3
  15ded0:	6203      	str	r3, [r0, #32]
  15ded2:	68c2      	ldr	r2, [r0, #12]
  15ded4:	68cb      	ldr	r3, [r1, #12]
  15ded6:	18d3      	adds	r3, r2, r3
  15ded8:	60c3      	str	r3, [r0, #12]
  15deda:	6902      	ldr	r2, [r0, #16]
  15dedc:	690b      	ldr	r3, [r1, #16]
  15dede:	18d3      	adds	r3, r2, r3
  15dee0:	6103      	str	r3, [r0, #16]
  15dee2:	6942      	ldr	r2, [r0, #20]
  15dee4:	694b      	ldr	r3, [r1, #20]
  15dee6:	18d3      	adds	r3, r2, r3
  15dee8:	6143      	str	r3, [r0, #20]
  15deea:	4770      	bx	lr

0015deec <chdk_free>:
  15deec:	b510      	push	{r4, lr}
  15deee:	1c03      	adds	r3, r0, #0
  15def0:	1e02      	subs	r2, r0, #0
  15def2:	d00c      	beq.n	15df0e <chdk_free+0x22>
  15def4:	6812      	ldr	r2, [r2, #0]
  15def6:	1e10      	subs	r0, r2, #0
  15def8:	d009      	beq.n	15df0e <chdk_free+0x22>
  15defa:	685c      	ldr	r4, [r3, #4]
  15defc:	2200      	movs	r2, #0
  15defe:	42a1      	cmp	r1, r4
  15df00:	d305      	bcc.n	15df0e <chdk_free+0x22>
  15df02:	689b      	ldr	r3, [r3, #8]
  15df04:	4299      	cmp	r1, r3
  15df06:	d202      	bcs.n	15df0e <chdk_free+0x22>
  15df08:	f00a ff80 	bl	168e0c <suba_free>
  15df0c:	2201      	movs	r2, #1
  15df0e:	1c10      	adds	r0, r2, #0
  15df10:	bc10      	pop	{r4}
  15df12:	bc02      	pop	{r1}
  15df14:	4708      	bx	r1

0015df16 <chdk_malloc>:
  15df16:	b500      	push	{lr}
  15df18:	2800      	cmp	r0, #0
  15df1a:	d005      	beq.n	15df28 <chdk_malloc+0x12>
  15df1c:	6800      	ldr	r0, [r0, #0]
  15df1e:	2800      	cmp	r0, #0
  15df20:	d002      	beq.n	15df28 <chdk_malloc+0x12>
  15df22:	2200      	movs	r2, #0
  15df24:	f00a ff18 	bl	168d58 <suba_alloc>
  15df28:	bc02      	pop	{r1}
  15df2a:	4708      	bx	r1

0015df2c <chdk_meminfo>:
  15df2c:	b537      	push	{r0, r1, r2, r4, r5, lr}
  15df2e:	1e03      	subs	r3, r0, #0
  15df30:	d01b      	beq.n	15df6a <chdk_meminfo+0x3e>
  15df32:	681a      	ldr	r2, [r3, #0]
  15df34:	2a00      	cmp	r2, #0
  15df36:	d018      	beq.n	15df6a <chdk_meminfo+0x3e>
  15df38:	685a      	ldr	r2, [r3, #4]
  15df3a:	600a      	str	r2, [r1, #0]
  15df3c:	689a      	ldr	r2, [r3, #8]
  15df3e:	604a      	str	r2, [r1, #4]
  15df40:	68da      	ldr	r2, [r3, #12]
  15df42:	608a      	str	r2, [r1, #8]
  15df44:	6818      	ldr	r0, [r3, #0]
  15df46:	1c0c      	adds	r4, r1, #0
  15df48:	340c      	adds	r4, #12
  15df4a:	1c0a      	adds	r2, r1, #0
  15df4c:	3210      	adds	r2, #16
  15df4e:	1c0b      	adds	r3, r1, #0
  15df50:	3314      	adds	r3, #20
  15df52:	1c0d      	adds	r5, r1, #0
  15df54:	3518      	adds	r5, #24
  15df56:	9500      	str	r5, [sp, #0]
  15df58:	3504      	adds	r5, #4
  15df5a:	9501      	str	r5, [sp, #4]
  15df5c:	3120      	adds	r1, #32
  15df5e:	9102      	str	r1, [sp, #8]
  15df60:	1c21      	adds	r1, r4, #0
  15df62:	f00a fe77 	bl	168c54 <suba_getmeminfo>
  15df66:	2001      	movs	r0, #1
  15df68:	e005      	b.n	15df76 <chdk_meminfo+0x4a>
  15df6a:	1c08      	adds	r0, r1, #0
  15df6c:	2100      	movs	r1, #0
  15df6e:	2224      	movs	r2, #36	; 0x24
  15df70:	f011 fbea 	bl	16f748 <__memset_from_thumb>
  15df74:	2000      	movs	r0, #0
  15df76:	bc3e      	pop	{r1, r2, r3, r4, r5}
  15df78:	bc02      	pop	{r1}
  15df7a:	4708      	bx	r1

0015df7c <exmem_malloc_init>:
  15df7c:	b500      	push	{lr}
  15df7e:	4802      	ldr	r0, [pc, #8]	; (15df88 <exmem_malloc_init+0xc>)
  15df80:	f7ff ff90 	bl	15dea4 <chdk_heap_init>
  15df84:	bc01      	pop	{r0}
  15df86:	4700      	bx	r0
  15df88:	0017c3d0 	.word	0x0017c3d0

0015df8c <GetExMemInfo>:
  15df8c:	b500      	push	{lr}
  15df8e:	1c01      	adds	r1, r0, #0
  15df90:	4802      	ldr	r0, [pc, #8]	; (15df9c <GetExMemInfo+0x10>)
  15df92:	f7ff ffcb 	bl	15df2c <chdk_meminfo>
  15df96:	bc02      	pop	{r1}
  15df98:	4708      	bx	r1
  15df9a:	46c0      	nop			; (mov r8, r8)
  15df9c:	0017c3d0 	.word	0x0017c3d0

0015dfa0 <aram_malloc_init>:
  15dfa0:	b500      	push	{lr}
  15dfa2:	4803      	ldr	r0, [pc, #12]	; (15dfb0 <aram_malloc_init+0x10>)
  15dfa4:	3010      	adds	r0, #16
  15dfa6:	f7ff ff7d 	bl	15dea4 <chdk_heap_init>
  15dfaa:	bc01      	pop	{r0}
  15dfac:	4700      	bx	r0
  15dfae:	46c0      	nop			; (mov r8, r8)
  15dfb0:	0017c3d0 	.word	0x0017c3d0

0015dfb4 <GetARamInfo>:
  15dfb4:	b500      	push	{lr}
  15dfb6:	1c01      	adds	r1, r0, #0
  15dfb8:	4802      	ldr	r0, [pc, #8]	; (15dfc4 <GetARamInfo+0x10>)
  15dfba:	3010      	adds	r0, #16
  15dfbc:	f7ff ffb6 	bl	15df2c <chdk_meminfo>
  15dfc0:	bc02      	pop	{r1}
  15dfc2:	4708      	bx	r1
  15dfc4:	0017c3d0 	.word	0x0017c3d0

0015dfc8 <GetCombinedMemInfo>:
  15dfc8:	b510      	push	{r4, lr}
  15dfca:	b089      	sub	sp, #36	; 0x24
  15dfcc:	1c04      	adds	r4, r0, #0
  15dfce:	f011 fac3 	bl	16f558 <__GetMemInfo_from_thumb>
  15dfd2:	2300      	movs	r3, #0
  15dfd4:	6063      	str	r3, [r4, #4]
  15dfd6:	6023      	str	r3, [r4, #0]
  15dfd8:	4668      	mov	r0, sp
  15dfda:	f7ff ffeb 	bl	15dfb4 <GetARamInfo>
  15dfde:	2800      	cmp	r0, #0
  15dfe0:	d003      	beq.n	15dfea <GetCombinedMemInfo+0x22>
  15dfe2:	1c20      	adds	r0, r4, #0
  15dfe4:	4669      	mov	r1, sp
  15dfe6:	f7ff ff63 	bl	15deb0 <combine_meminfo>
  15dfea:	4668      	mov	r0, sp
  15dfec:	f7ff ffce 	bl	15df8c <GetExMemInfo>
  15dff0:	2800      	cmp	r0, #0
  15dff2:	d003      	beq.n	15dffc <GetCombinedMemInfo+0x34>
  15dff4:	1c20      	adds	r0, r4, #0
  15dff6:	4669      	mov	r1, sp
  15dff8:	f7ff ff5a 	bl	15deb0 <combine_meminfo>
  15dffc:	b009      	add	sp, #36	; 0x24
  15dffe:	bc10      	pop	{r4}
  15e000:	bc01      	pop	{r0}
  15e002:	4700      	bx	r0

0015e004 <malloc>:
  15e004:	b530      	push	{r4, r5, lr}
  15e006:	1c04      	adds	r4, r0, #0
  15e008:	4d09      	ldr	r5, [pc, #36]	; (15e030 <malloc+0x2c>)
  15e00a:	1c28      	adds	r0, r5, #0
  15e00c:	3010      	adds	r0, #16
  15e00e:	1c21      	adds	r1, r4, #0
  15e010:	f7ff ff81 	bl	15df16 <chdk_malloc>
  15e014:	2800      	cmp	r0, #0
  15e016:	d108      	bne.n	15e02a <malloc+0x26>
  15e018:	1c28      	adds	r0, r5, #0
  15e01a:	1c21      	adds	r1, r4, #0
  15e01c:	f7ff ff7b 	bl	15df16 <chdk_malloc>
  15e020:	2800      	cmp	r0, #0
  15e022:	d102      	bne.n	15e02a <malloc+0x26>
  15e024:	1c20      	adds	r0, r4, #0
  15e026:	f011 fa23 	bl	16f470 <__canon_malloc_from_thumb>
  15e02a:	bc30      	pop	{r4, r5}
  15e02c:	bc02      	pop	{r1}
  15e02e:	4708      	bx	r1
  15e030:	0017c3d0 	.word	0x0017c3d0

0015e034 <free>:
  15e034:	b530      	push	{r4, r5, lr}
  15e036:	1c04      	adds	r4, r0, #0
  15e038:	4d09      	ldr	r5, [pc, #36]	; (15e060 <free+0x2c>)
  15e03a:	1c28      	adds	r0, r5, #0
  15e03c:	3010      	adds	r0, #16
  15e03e:	1c21      	adds	r1, r4, #0
  15e040:	f7ff ff54 	bl	15deec <chdk_free>
  15e044:	2800      	cmp	r0, #0
  15e046:	d108      	bne.n	15e05a <free+0x26>
  15e048:	1c28      	adds	r0, r5, #0
  15e04a:	1c21      	adds	r1, r4, #0
  15e04c:	f7ff ff4e 	bl	15deec <chdk_free>
  15e050:	2800      	cmp	r0, #0
  15e052:	d102      	bne.n	15e05a <free+0x26>
  15e054:	1c20      	adds	r0, r4, #0
  15e056:	f011 fa67 	bl	16f528 <__canon_free_from_thumb>
  15e05a:	bc30      	pop	{r4, r5}
  15e05c:	bc01      	pop	{r0}
  15e05e:	4700      	bx	r0
  15e060:	0017c3d0 	.word	0x0017c3d0

0015e064 <gui_draw_read_selected>:
  15e064:	b500      	push	{lr}
  15e066:	2800      	cmp	r0, #0
  15e068:	d004      	beq.n	15e074 <gui_draw_read_selected+0x10>
  15e06a:	4b03      	ldr	r3, [pc, #12]	; (15e078 <gui_draw_read_selected+0x14>)
  15e06c:	681b      	ldr	r3, [r3, #0]
  15e06e:	695b      	ldr	r3, [r3, #20]
  15e070:	f001 fe99 	bl	15fda6 <gui_activate_alt_mode+0xaa>
  15e074:	bc01      	pop	{r0}
  15e076:	4700      	bx	r0
  15e078:	0017bf4c 	.word	0x0017bf4c

0015e07c <gui_draw_read>:
  15e07c:	b510      	push	{r4, lr}
  15e07e:	4b06      	ldr	r3, [pc, #24]	; (15e098 <gui_draw_read+0x1c>)
  15e080:	681b      	ldr	r3, [r3, #0]
  15e082:	695c      	ldr	r4, [r3, #20]
  15e084:	2072      	movs	r0, #114	; 0x72
  15e086:	4905      	ldr	r1, [pc, #20]	; (15e09c <gui_draw_read+0x20>)
  15e088:	4a05      	ldr	r2, [pc, #20]	; (15e0a0 <gui_draw_read+0x24>)
  15e08a:	4b06      	ldr	r3, [pc, #24]	; (15e0a4 <gui_draw_read+0x28>)
  15e08c:	f001 fe8c 	bl	15fda8 <gui_activate_alt_mode+0xac>
  15e090:	bc10      	pop	{r4}
  15e092:	bc01      	pop	{r0}
  15e094:	4700      	bx	r0
  15e096:	46c0      	nop			; (mov r8, r8)
  15e098:	0017bf9c 	.word	0x0017bf9c
  15e09c:	00176ab8 	.word	0x00176ab8
  15e0a0:	00173436 	.word	0x00173436
  15e0a4:	0015e065 	.word	0x0015e065

0015e0a8 <gui_draw_load_rbf>:
  15e0a8:	b510      	push	{r4, lr}
  15e0aa:	4b06      	ldr	r3, [pc, #24]	; (15e0c4 <gui_draw_load_rbf+0x1c>)
  15e0ac:	681b      	ldr	r3, [r3, #0]
  15e0ae:	695c      	ldr	r4, [r3, #20]
  15e0b0:	2073      	movs	r0, #115	; 0x73
  15e0b2:	4905      	ldr	r1, [pc, #20]	; (15e0c8 <gui_draw_load_rbf+0x20>)
  15e0b4:	4a05      	ldr	r2, [pc, #20]	; (15e0cc <gui_draw_load_rbf+0x24>)
  15e0b6:	4b06      	ldr	r3, [pc, #24]	; (15e0d0 <gui_draw_load_rbf+0x28>)
  15e0b8:	f001 fe76 	bl	15fda8 <gui_activate_alt_mode+0xac>
  15e0bc:	bc10      	pop	{r4}
  15e0be:	bc01      	pop	{r0}
  15e0c0:	4700      	bx	r0
  15e0c2:	46c0      	nop			; (mov r8, r8)
  15e0c4:	0017bf9c 	.word	0x0017bf9c
  15e0c8:	00176b28 	.word	0x00176b28
  15e0cc:	001733ff 	.word	0x001733ff
  15e0d0:	0015e7b5 	.word	0x0015e7b5

0015e0d4 <gui_draw_fselect>:
  15e0d4:	b510      	push	{r4, lr}
  15e0d6:	4b06      	ldr	r3, [pc, #24]	; (15e0f0 <gui_draw_fselect+0x1c>)
  15e0d8:	681b      	ldr	r3, [r3, #0]
  15e0da:	4a06      	ldr	r2, [pc, #24]	; (15e0f4 <gui_draw_fselect+0x20>)
  15e0dc:	695c      	ldr	r4, [r3, #20]
  15e0de:	2070      	movs	r0, #112	; 0x70
  15e0e0:	1c11      	adds	r1, r2, #0
  15e0e2:	2300      	movs	r3, #0
  15e0e4:	f001 fe60 	bl	15fda8 <gui_activate_alt_mode+0xac>
  15e0e8:	bc10      	pop	{r4}
  15e0ea:	bc01      	pop	{r0}
  15e0ec:	4700      	bx	r0
  15e0ee:	46c0      	nop			; (mov r8, r8)
  15e0f0:	0017bf9c 	.word	0x0017bf9c
  15e0f4:	001746b9 	.word	0x001746b9

0015e0f8 <lua_native_call_warning>:
  15e0f8:	2804      	cmp	r0, #4
  15e0fa:	d102      	bne.n	15e102 <lua_native_call_warning+0xa>
  15e0fc:	2200      	movs	r2, #0
  15e0fe:	4b01      	ldr	r3, [pc, #4]	; (15e104 <lua_native_call_warning+0xc>)
  15e100:	671a      	str	r2, [r3, #112]	; 0x70
  15e102:	4770      	bx	lr
  15e104:	001766e4 	.word	0x001766e4

0015e108 <cb_perc>:
  15e108:	2200      	movs	r2, #0
  15e10a:	4b02      	ldr	r3, [pc, #8]	; (15e114 <cb_perc+0xc>)
  15e10c:	33fc      	adds	r3, #252	; 0xfc
  15e10e:	655a      	str	r2, [r3, #84]	; 0x54
  15e110:	4770      	bx	lr
  15e112:	46c0      	nop			; (mov r8, r8)
  15e114:	001766e4 	.word	0x001766e4

0015e118 <cb_volts>:
  15e118:	2200      	movs	r2, #0
  15e11a:	4b02      	ldr	r3, [pc, #8]	; (15e124 <cb_volts+0xc>)
  15e11c:	33fc      	adds	r3, #252	; 0xfc
  15e11e:	651a      	str	r2, [r3, #80]	; 0x50
  15e120:	4770      	bx	lr
  15e122:	46c0      	nop			; (mov r8, r8)
  15e124:	001766e4 	.word	0x001766e4

0015e128 <cb_batt_max>:
  15e128:	4b04      	ldr	r3, [pc, #16]	; (15e13c <cb_batt_max+0x14>)
  15e12a:	33fc      	adds	r3, #252	; 0xfc
  15e12c:	6c9a      	ldr	r2, [r3, #72]	; 0x48
  15e12e:	6cd9      	ldr	r1, [r3, #76]	; 0x4c
  15e130:	3118      	adds	r1, #24
  15e132:	4291      	cmp	r1, r2
  15e134:	db01      	blt.n	15e13a <cb_batt_max+0x12>
  15e136:	3a19      	subs	r2, #25
  15e138:	64da      	str	r2, [r3, #76]	; 0x4c
  15e13a:	4770      	bx	lr
  15e13c:	001766e4 	.word	0x001766e4

0015e140 <cb_batt_min>:
  15e140:	4b04      	ldr	r3, [pc, #16]	; (15e154 <cb_batt_min+0x14>)
  15e142:	33fc      	adds	r3, #252	; 0xfc
  15e144:	6cda      	ldr	r2, [r3, #76]	; 0x4c
  15e146:	6c99      	ldr	r1, [r3, #72]	; 0x48
  15e148:	3918      	subs	r1, #24
  15e14a:	4291      	cmp	r1, r2
  15e14c:	dc01      	bgt.n	15e152 <cb_batt_min+0x12>
  15e14e:	3219      	adds	r2, #25
  15e150:	649a      	str	r2, [r3, #72]	; 0x48
  15e152:	4770      	bx	lr
  15e154:	001766e4 	.word	0x001766e4

0015e158 <cb_space_perc>:
  15e158:	2100      	movs	r1, #0
  15e15a:	23c2      	movs	r3, #194	; 0xc2
  15e15c:	005b      	lsls	r3, r3, #1
  15e15e:	4a01      	ldr	r2, [pc, #4]	; (15e164 <cb_space_perc+0xc>)
  15e160:	50d1      	str	r1, [r2, r3]
  15e162:	4770      	bx	lr
  15e164:	001766e4 	.word	0x001766e4

0015e168 <cb_space_mb>:
  15e168:	2100      	movs	r1, #0
  15e16a:	23c0      	movs	r3, #192	; 0xc0
  15e16c:	005b      	lsls	r3, r3, #1
  15e16e:	4a01      	ldr	r2, [pc, #4]	; (15e174 <cb_space_mb+0xc>)
  15e170:	50d1      	str	r1, [r2, r3]
  15e172:	4770      	bx	lr
  15e174:	001766e4 	.word	0x001766e4

0015e178 <cb_change_flash_power>:
  15e178:	4b04      	ldr	r3, [pc, #16]	; (15e18c <cb_change_flash_power+0x14>)
  15e17a:	4a05      	ldr	r2, [pc, #20]	; (15e190 <cb_change_flash_power+0x18>)
  15e17c:	589a      	ldr	r2, [r3, r2]
  15e17e:	2a00      	cmp	r2, #0
  15e180:	d002      	beq.n	15e188 <cb_change_flash_power+0x10>
  15e182:	2100      	movs	r1, #0
  15e184:	4a03      	ldr	r2, [pc, #12]	; (15e194 <cb_change_flash_power+0x1c>)
  15e186:	5099      	str	r1, [r3, r2]
  15e188:	4770      	bx	lr
  15e18a:	46c0      	nop			; (mov r8, r8)
  15e18c:	001766e4 	.word	0x001766e4
  15e190:	00000774 	.word	0x00000774
  15e194:	0000077c 	.word	0x0000077c

0015e198 <cb_change_flash_exp_comp>:
  15e198:	4b04      	ldr	r3, [pc, #16]	; (15e1ac <cb_change_flash_exp_comp+0x14>)
  15e19a:	4a05      	ldr	r2, [pc, #20]	; (15e1b0 <cb_change_flash_exp_comp+0x18>)
  15e19c:	589a      	ldr	r2, [r3, r2]
  15e19e:	2a00      	cmp	r2, #0
  15e1a0:	d002      	beq.n	15e1a8 <cb_change_flash_exp_comp+0x10>
  15e1a2:	2100      	movs	r1, #0
  15e1a4:	4a03      	ldr	r2, [pc, #12]	; (15e1b4 <cb_change_flash_exp_comp+0x1c>)
  15e1a6:	5099      	str	r1, [r3, r2]
  15e1a8:	4770      	bx	lr
  15e1aa:	46c0      	nop			; (mov r8, r8)
  15e1ac:	001766e4 	.word	0x001766e4
  15e1b0:	0000077c 	.word	0x0000077c
  15e1b4:	00000774 	.word	0x00000774

0015e1b8 <gui_load_edge_selected>:
  15e1b8:	b500      	push	{lr}
  15e1ba:	2800      	cmp	r0, #0
  15e1bc:	d004      	beq.n	15e1c8 <gui_load_edge_selected+0x10>
  15e1be:	4b03      	ldr	r3, [pc, #12]	; (15e1cc <gui_load_edge_selected+0x14>)
  15e1c0:	681b      	ldr	r3, [r3, #0]
  15e1c2:	699b      	ldr	r3, [r3, #24]
  15e1c4:	f001 fdef 	bl	15fda6 <gui_activate_alt_mode+0xaa>
  15e1c8:	bc01      	pop	{r0}
  15e1ca:	4700      	bx	r0
  15e1cc:	0017c050 	.word	0x0017c050

0015e1d0 <gui_menuproc_edge_save>:
  15e1d0:	b500      	push	{lr}
  15e1d2:	4b03      	ldr	r3, [pc, #12]	; (15e1e0 <gui_menuproc_edge_save+0x10>)
  15e1d4:	681b      	ldr	r3, [r3, #0]
  15e1d6:	69db      	ldr	r3, [r3, #28]
  15e1d8:	f001 fde5 	bl	15fda6 <gui_activate_alt_mode+0xaa>
  15e1dc:	bc01      	pop	{r0}
  15e1de:	4700      	bx	r0
  15e1e0:	0017c050 	.word	0x0017c050

0015e1e4 <gui_menuproc_edge_load>:
  15e1e4:	b510      	push	{r4, lr}
  15e1e6:	4b06      	ldr	r3, [pc, #24]	; (15e200 <gui_menuproc_edge_load+0x1c>)
  15e1e8:	681b      	ldr	r3, [r3, #0]
  15e1ea:	4a06      	ldr	r2, [pc, #24]	; (15e204 <gui_menuproc_edge_load+0x20>)
  15e1ec:	695c      	ldr	r4, [r3, #20]
  15e1ee:	4806      	ldr	r0, [pc, #24]	; (15e208 <gui_menuproc_edge_load+0x24>)
  15e1f0:	1c11      	adds	r1, r2, #0
  15e1f2:	4b06      	ldr	r3, [pc, #24]	; (15e20c <gui_menuproc_edge_load+0x28>)
  15e1f4:	f001 fdd8 	bl	15fda8 <gui_activate_alt_mode+0xac>
  15e1f8:	bc10      	pop	{r4}
  15e1fa:	bc01      	pop	{r0}
  15e1fc:	4700      	bx	r0
  15e1fe:	46c0      	nop			; (mov r8, r8)
  15e200:	0017bf9c 	.word	0x0017bf9c
  15e204:	00173498 	.word	0x00173498
  15e208:	000001a1 	.word	0x000001a1
  15e20c:	0015e1b9 	.word	0x0015e1b9

0015e210 <gui_grid_lines_load_selected>:
  15e210:	b500      	push	{lr}
  15e212:	2800      	cmp	r0, #0
  15e214:	d004      	beq.n	15e220 <gui_grid_lines_load_selected+0x10>
  15e216:	4b03      	ldr	r3, [pc, #12]	; (15e224 <gui_grid_lines_load_selected+0x14>)
  15e218:	681b      	ldr	r3, [r3, #0]
  15e21a:	699b      	ldr	r3, [r3, #24]
  15e21c:	f001 fdc3 	bl	15fda6 <gui_activate_alt_mode+0xaa>
  15e220:	bc01      	pop	{r0}
  15e222:	4700      	bx	r0
  15e224:	0017bfd8 	.word	0x0017bfd8

0015e228 <gui_grid_lines_load>:
  15e228:	b510      	push	{r4, lr}
  15e22a:	4b06      	ldr	r3, [pc, #24]	; (15e244 <gui_grid_lines_load+0x1c>)
  15e22c:	681b      	ldr	r3, [r3, #0]
  15e22e:	695c      	ldr	r4, [r3, #20]
  15e230:	20cc      	movs	r0, #204	; 0xcc
  15e232:	4905      	ldr	r1, [pc, #20]	; (15e248 <gui_grid_lines_load+0x20>)
  15e234:	4a05      	ldr	r2, [pc, #20]	; (15e24c <gui_grid_lines_load+0x24>)
  15e236:	4b06      	ldr	r3, [pc, #24]	; (15e250 <gui_grid_lines_load+0x28>)
  15e238:	f001 fdb6 	bl	15fda8 <gui_activate_alt_mode+0xac>
  15e23c:	bc10      	pop	{r4}
  15e23e:	bc01      	pop	{r0}
  15e240:	4700      	bx	r0
  15e242:	46c0      	nop			; (mov r8, r8)
  15e244:	0017bf9c 	.word	0x0017bf9c
  15e248:	00176bc8 	.word	0x00176bc8
  15e24c:	00173465 	.word	0x00173465
  15e250:	0015e211 	.word	0x0015e211

0015e254 <gui_menu_run_palette>:
  15e254:	b500      	push	{lr}
  15e256:	4b05      	ldr	r3, [pc, #20]	; (15e26c <gui_menu_run_palette+0x18>)
  15e258:	681b      	ldr	r3, [r3, #0]
  15e25a:	695b      	ldr	r3, [r3, #20]
  15e25c:	2000      	movs	r0, #0
  15e25e:	1c01      	adds	r1, r0, #0
  15e260:	1c02      	adds	r2, r0, #0
  15e262:	f001 fda0 	bl	15fda6 <gui_activate_alt_mode+0xaa>
  15e266:	bc01      	pop	{r0}
  15e268:	4700      	bx	r0
  15e26a:	46c0      	nop			; (mov r8, r8)
  15e26c:	0017bfc4 	.word	0x0017bfc4

0015e270 <gui_menuproc_badpixel_create>:
  15e270:	b500      	push	{lr}
  15e272:	4b03      	ldr	r3, [pc, #12]	; (15e280 <gui_menuproc_badpixel_create+0x10>)
  15e274:	681b      	ldr	r3, [r3, #0]
  15e276:	695b      	ldr	r3, [r3, #20]
  15e278:	f001 fd95 	bl	15fda6 <gui_activate_alt_mode+0xaa>
  15e27c:	bc01      	pop	{r0}
  15e27e:	4700      	bx	r0
  15e280:	0017bf88 	.word	0x0017bf88

0015e284 <gui_raw_develop>:
  15e284:	b510      	push	{r4, lr}
  15e286:	4b06      	ldr	r3, [pc, #24]	; (15e2a0 <gui_raw_develop+0x1c>)
  15e288:	681b      	ldr	r3, [r3, #0]
  15e28a:	695c      	ldr	r4, [r3, #20]
  15e28c:	2086      	movs	r0, #134	; 0x86
  15e28e:	0040      	lsls	r0, r0, #1
  15e290:	4904      	ldr	r1, [pc, #16]	; (15e2a4 <gui_raw_develop+0x20>)
  15e292:	4a05      	ldr	r2, [pc, #20]	; (15e2a8 <gui_raw_develop+0x24>)
  15e294:	4b05      	ldr	r3, [pc, #20]	; (15e2ac <gui_raw_develop+0x28>)
  15e296:	f001 fd87 	bl	15fda8 <gui_activate_alt_mode+0xac>
  15e29a:	bc10      	pop	{r4}
  15e29c:	bc01      	pop	{r0}
  15e29e:	4700      	bx	r0
  15e2a0:	0017bf9c 	.word	0x0017bf9c
  15e2a4:	001733c4 	.word	0x001733c4
  15e2a8:	001746b9 	.word	0x001746b9
  15e2ac:	0015eb11 	.word	0x0015eb11

0015e2b0 <cb_zebra_restore_screen>:
  15e2b0:	4b04      	ldr	r3, [pc, #16]	; (15e2c4 <cb_zebra_restore_screen+0x14>)
  15e2b2:	22ee      	movs	r2, #238	; 0xee
  15e2b4:	0052      	lsls	r2, r2, #1
  15e2b6:	589a      	ldr	r2, [r3, r2]
  15e2b8:	2a00      	cmp	r2, #0
  15e2ba:	d102      	bne.n	15e2c2 <cb_zebra_restore_screen+0x12>
  15e2bc:	21f0      	movs	r1, #240	; 0xf0
  15e2be:	0049      	lsls	r1, r1, #1
  15e2c0:	505a      	str	r2, [r3, r1]
  15e2c2:	4770      	bx	lr
  15e2c4:	001766e4 	.word	0x001766e4

0015e2c8 <cb_zebra_restore_osd>:
  15e2c8:	4b05      	ldr	r3, [pc, #20]	; (15e2e0 <cb_zebra_restore_osd+0x18>)
  15e2ca:	22f0      	movs	r2, #240	; 0xf0
  15e2cc:	0052      	lsls	r2, r2, #1
  15e2ce:	589a      	ldr	r2, [r3, r2]
